
kernel.elf:     file format elf32-i386


Disassembly of section .text:

00100000 <_entry>:
  100000:	bc 00 00 40 00       	mov    $0x400000,%esp
  100005:	e8 b0 1b 00 00       	call   101bba <kernel_init>
  10000a:	e8 a1 19 00 00       	call   1019b0 <kernel_main>
  10000f:	fa                   	cli    
  100010:	f4                   	hlt    
  100011:	eb fd                	jmp    100010 <_entry+0x10>
	...

00100014 <apic_supported>:
  100014:	55                   	push   %ebp
  100015:	89 e5                	mov    %esp,%ebp
  100017:	57                   	push   %edi
  100018:	56                   	push   %esi
  100019:	53                   	push   %ebx
  10001a:	83 ec 18             	sub    $0x18,%esp
  10001d:	c7 45 dc 01 00 00 00 	movl   $0x1,-0x24(%ebp)
  100024:	8b 45 dc             	mov    -0x24(%ebp),%eax
  100027:	0f a2                	cpuid  
  100029:	89 d6                	mov    %edx,%esi
  10002b:	89 cf                	mov    %ecx,%edi
  10002d:	89 45 e0             	mov    %eax,-0x20(%ebp)
  100030:	8b 45 e0             	mov    -0x20(%ebp),%eax
  100033:	89 45 f0             	mov    %eax,-0x10(%ebp)
  100036:	89 5d ec             	mov    %ebx,-0x14(%ebp)
  100039:	89 7d e8             	mov    %edi,-0x18(%ebp)
  10003c:	89 75 e4             	mov    %esi,-0x1c(%ebp)
  10003f:	8b 45 e4             	mov    -0x1c(%ebp),%eax
  100042:	25 00 02 00 00       	and    $0x200,%eax
  100047:	85 c0                	test   %eax,%eax
  100049:	0f 95 c0             	setne  %al
  10004c:	83 c4 18             	add    $0x18,%esp
  10004f:	5b                   	pop    %ebx
  100050:	5e                   	pop    %esi
  100051:	5f                   	pop    %edi
  100052:	5d                   	pop    %ebp
  100053:	c3                   	ret    

00100054 <cpuid_detect>:
  100054:	55                   	push   %ebp
  100055:	89 e5                	mov    %esp,%ebp
  100057:	57                   	push   %edi
  100058:	56                   	push   %esi
  100059:	53                   	push   %ebx
  10005a:	83 ec 2c             	sub    $0x2c,%esp
  10005d:	c7 45 d0 00 00 00 00 	movl   $0x0,-0x30(%ebp)
  100064:	8b 45 d0             	mov    -0x30(%ebp),%eax
  100067:	0f a2                	cpuid  
  100069:	89 d6                	mov    %edx,%esi
  10006b:	89 cf                	mov    %ecx,%edi
  10006d:	89 45 d4             	mov    %eax,-0x2c(%ebp)
  100070:	8b 45 d4             	mov    -0x2c(%ebp),%eax
  100073:	89 45 e4             	mov    %eax,-0x1c(%ebp)
  100076:	89 5d e0             	mov    %ebx,-0x20(%ebp)
  100079:	89 7d e4             	mov    %edi,-0x1c(%ebp)
  10007c:	89 75 e4             	mov    %esi,-0x1c(%ebp)
  10007f:	8b 45 e0             	mov    -0x20(%ebp),%eax
  100082:	3d 41 75 74 68       	cmp    $0x68747541,%eax
  100087:	74 0e                	je     100097 <cpuid_detect+0x43>
  100089:	3d 47 65 6e 75       	cmp    $0x756e6547,%eax
  10008e:	75 0e                	jne    10009e <cpuid_detect+0x4a>
  100090:	e8 63 03 00 00       	call   1003f8 <cpuid_detect_intel>
  100095:	eb 0c                	jmp    1000a3 <cpuid_detect+0x4f>
  100097:	e8 72 07 00 00       	call   10080e <cpuid_detect_amd>
  10009c:	eb 05                	jmp    1000a3 <cpuid_detect+0x4f>
  10009e:	b8 00 00 00 00       	mov    $0x0,%eax
  1000a3:	83 c4 2c             	add    $0x2c,%esp
  1000a6:	5b                   	pop    %ebx
  1000a7:	5e                   	pop    %esi
  1000a8:	5f                   	pop    %edi
  1000a9:	5d                   	pop    %ebp
  1000aa:	c3                   	ret    

001000ab <cpuid_set_strings>:
  1000ab:	55                   	push   %ebp
  1000ac:	89 e5                	mov    %esp,%ebp
  1000ae:	53                   	push   %ebx
  1000af:	8b 45 08             	mov    0x8(%ebp),%eax
  1000b2:	8b 40 38             	mov    0x38(%eax),%eax
  1000b5:	85 c0                	test   %eax,%eax
  1000b7:	0f 85 41 02 00 00    	jne    1002fe <cpuid_set_strings+0x253>
  1000bd:	8b 45 08             	mov    0x8(%ebp),%eax
  1000c0:	8b 40 1c             	mov    0x1c(%eax),%eax
  1000c3:	83 f8 01             	cmp    $0x1,%eax
  1000c6:	74 1d                	je     1000e5 <cpuid_set_strings+0x3a>
  1000c8:	83 f8 01             	cmp    $0x1,%eax
  1000cb:	72 0c                	jb     1000d9 <cpuid_set_strings+0x2e>
  1000cd:	83 f8 02             	cmp    $0x2,%eax
  1000d0:	74 1f                	je     1000f1 <cpuid_set_strings+0x46>
  1000d2:	83 f8 03             	cmp    $0x3,%eax
  1000d5:	74 26                	je     1000fd <cpuid_set_strings+0x52>
  1000d7:	eb 2f                	jmp    100108 <cpuid_set_strings+0x5d>
  1000d9:	8b 45 08             	mov    0x8(%ebp),%eax
  1000dc:	c7 40 40 bf 58 10 00 	movl   $0x1058bf,0x40(%eax)
  1000e3:	eb 23                	jmp    100108 <cpuid_set_strings+0x5d>
  1000e5:	8b 45 08             	mov    0x8(%ebp),%eax
  1000e8:	c7 40 40 cc 58 10 00 	movl   $0x1058cc,0x40(%eax)
  1000ef:	eb 17                	jmp    100108 <cpuid_set_strings+0x5d>
  1000f1:	8b 45 08             	mov    0x8(%ebp),%eax
  1000f4:	c7 40 40 d6 58 10 00 	movl   $0x1058d6,0x40(%eax)
  1000fb:	eb 0b                	jmp    100108 <cpuid_set_strings+0x5d>
  1000fd:	8b 45 08             	mov    0x8(%ebp),%eax
  100100:	c7 40 40 06 57 10 00 	movl   $0x105706,0x40(%eax)
  100107:	90                   	nop
  100108:	8b 45 08             	mov    0x8(%ebp),%eax
  10010b:	8b 40 08             	mov    0x8(%eax),%eax
  10010e:	83 e8 03             	sub    $0x3,%eax
  100111:	83 f8 0c             	cmp    $0xc,%eax
  100114:	77 44                	ja     10015a <cpuid_set_strings+0xaf>
  100116:	8b 04 85 b4 5a 10 00 	mov    0x105ab4(,%eax,4),%eax
  10011d:	ff e0                	jmp    *%eax
  10011f:	8b 45 08             	mov    0x8(%ebp),%eax
  100122:	c7 40 44 e3 58 10 00 	movl   $0x1058e3,0x44(%eax)
  100129:	eb 2f                	jmp    10015a <cpuid_set_strings+0xaf>
  10012b:	8b 45 08             	mov    0x8(%ebp),%eax
  10012e:	c7 40 44 e8 58 10 00 	movl   $0x1058e8,0x44(%eax)
  100135:	eb 23                	jmp    10015a <cpuid_set_strings+0xaf>
  100137:	8b 45 08             	mov    0x8(%ebp),%eax
  10013a:	c7 40 44 ed 58 10 00 	movl   $0x1058ed,0x44(%eax)
  100141:	eb 17                	jmp    10015a <cpuid_set_strings+0xaf>
  100143:	8b 45 08             	mov    0x8(%ebp),%eax
  100146:	c7 40 44 f5 58 10 00 	movl   $0x1058f5,0x44(%eax)
  10014d:	eb 0b                	jmp    10015a <cpuid_set_strings+0xaf>
  10014f:	8b 45 08             	mov    0x8(%ebp),%eax
  100152:	c7 40 44 01 59 10 00 	movl   $0x105901,0x44(%eax)
  100159:	90                   	nop
  10015a:	8b 45 08             	mov    0x8(%ebp),%eax
  10015d:	8b 40 08             	mov    0x8(%eax),%eax
  100160:	83 e8 03             	sub    $0x3,%eax
  100163:	83 f8 0c             	cmp    $0xc,%eax
  100166:	0f 87 2e 01 00 00    	ja     10029a <cpuid_set_strings+0x1ef>
  10016c:	8b 04 85 e8 5a 10 00 	mov    0x105ae8(,%eax,4),%eax
  100173:	ff e0                	jmp    *%eax
  100175:	8b 45 08             	mov    0x8(%ebp),%eax
  100178:	8b 40 10             	mov    0x10(%eax),%eax
  10017b:	83 f8 08             	cmp    $0x8,%eax
  10017e:	0f 87 12 01 00 00    	ja     100296 <cpuid_set_strings+0x1eb>
  100184:	8b 04 85 1c 5b 10 00 	mov    0x105b1c(,%eax,4),%eax
  10018b:	ff e0                	jmp    *%eax
  10018d:	8b 45 08             	mov    0x8(%ebp),%eax
  100190:	c7 40 48 0b 59 10 00 	movl   $0x10590b,0x48(%eax)
  100197:	eb 47                	jmp    1001e0 <cpuid_set_strings+0x135>
  100199:	8b 45 08             	mov    0x8(%ebp),%eax
  10019c:	c7 40 48 0e 59 10 00 	movl   $0x10590e,0x48(%eax)
  1001a3:	eb 3b                	jmp    1001e0 <cpuid_set_strings+0x135>
  1001a5:	8b 45 08             	mov    0x8(%ebp),%eax
  1001a8:	c7 40 48 11 59 10 00 	movl   $0x105911,0x48(%eax)
  1001af:	eb 2f                	jmp    1001e0 <cpuid_set_strings+0x135>
  1001b1:	8b 45 08             	mov    0x8(%ebp),%eax
  1001b4:	c7 40 48 19 59 10 00 	movl   $0x105919,0x48(%eax)
  1001bb:	eb 23                	jmp    1001e0 <cpuid_set_strings+0x135>
  1001bd:	8b 45 08             	mov    0x8(%ebp),%eax
  1001c0:	c7 40 48 1c 59 10 00 	movl   $0x10591c,0x48(%eax)
  1001c7:	eb 17                	jmp    1001e0 <cpuid_set_strings+0x135>
  1001c9:	8b 45 08             	mov    0x8(%ebp),%eax
  1001cc:	c7 40 48 20 59 10 00 	movl   $0x105920,0x48(%eax)
  1001d3:	eb 0b                	jmp    1001e0 <cpuid_set_strings+0x135>
  1001d5:	8b 45 08             	mov    0x8(%ebp),%eax
  1001d8:	c7 40 48 38 59 10 00 	movl   $0x105938,0x48(%eax)
  1001df:	90                   	nop
  1001e0:	e9 b1 00 00 00       	jmp    100296 <cpuid_set_strings+0x1eb>
  1001e5:	8b 45 08             	mov    0x8(%ebp),%eax
  1001e8:	8b 40 10             	mov    0x10(%eax),%eax
  1001eb:	83 f8 02             	cmp    $0x2,%eax
  1001ee:	74 24                	je     100214 <cpuid_set_strings+0x169>
  1001f0:	83 f8 02             	cmp    $0x2,%eax
  1001f3:	77 07                	ja     1001fc <cpuid_set_strings+0x151>
  1001f5:	83 f8 01             	cmp    $0x1,%eax
  1001f8:	74 0e                	je     100208 <cpuid_set_strings+0x15d>
  1001fa:	eb 3b                	jmp    100237 <cpuid_set_strings+0x18c>
  1001fc:	83 f8 03             	cmp    $0x3,%eax
  1001ff:	74 1f                	je     100220 <cpuid_set_strings+0x175>
  100201:	83 f8 04             	cmp    $0x4,%eax
  100204:	74 26                	je     10022c <cpuid_set_strings+0x181>
  100206:	eb 2f                	jmp    100237 <cpuid_set_strings+0x18c>
  100208:	8b 45 08             	mov    0x8(%ebp),%eax
  10020b:	c7 40 48 3c 59 10 00 	movl   $0x10593c,0x48(%eax)
  100212:	eb 23                	jmp    100237 <cpuid_set_strings+0x18c>
  100214:	8b 45 08             	mov    0x8(%ebp),%eax
  100217:	c7 40 48 42 59 10 00 	movl   $0x105942,0x48(%eax)
  10021e:	eb 17                	jmp    100237 <cpuid_set_strings+0x18c>
  100220:	8b 45 08             	mov    0x8(%ebp),%eax
  100223:	c7 40 48 49 59 10 00 	movl   $0x105949,0x48(%eax)
  10022a:	eb 0b                	jmp    100237 <cpuid_set_strings+0x18c>
  10022c:	8b 45 08             	mov    0x8(%ebp),%eax
  10022f:	c7 40 48 58 59 10 00 	movl   $0x105958,0x48(%eax)
  100236:	90                   	nop
  100237:	eb 61                	jmp    10029a <cpuid_set_strings+0x1ef>
  100239:	8b 45 08             	mov    0x8(%ebp),%eax
  10023c:	8b 40 10             	mov    0x10(%eax),%eax
  10023f:	83 f8 08             	cmp    $0x8,%eax
  100242:	77 55                	ja     100299 <cpuid_set_strings+0x1ee>
  100244:	8b 04 85 40 5b 10 00 	mov    0x105b40(,%eax,4),%eax
  10024b:	ff e0                	jmp    *%eax
  10024d:	8b 45 08             	mov    0x8(%ebp),%eax
  100250:	c7 40 48 f5 58 10 00 	movl   $0x1058f5,0x48(%eax)
  100257:	eb 3b                	jmp    100294 <cpuid_set_strings+0x1e9>
  100259:	8b 45 08             	mov    0x8(%ebp),%eax
  10025c:	c7 40 48 5c 59 10 00 	movl   $0x10595c,0x48(%eax)
  100263:	eb 2f                	jmp    100294 <cpuid_set_strings+0x1e9>
  100265:	8b 45 08             	mov    0x8(%ebp),%eax
  100268:	c7 40 48 70 59 10 00 	movl   $0x105970,0x48(%eax)
  10026f:	eb 23                	jmp    100294 <cpuid_set_strings+0x1e9>
  100271:	8b 45 08             	mov    0x8(%ebp),%eax
  100274:	c7 40 48 90 59 10 00 	movl   $0x105990,0x48(%eax)
  10027b:	eb 17                	jmp    100294 <cpuid_set_strings+0x1e9>
  10027d:	8b 45 08             	mov    0x8(%ebp),%eax
  100280:	c7 40 48 98 59 10 00 	movl   $0x105998,0x48(%eax)
  100287:	eb 0b                	jmp    100294 <cpuid_set_strings+0x1e9>
  100289:	8b 45 08             	mov    0x8(%ebp),%eax
  10028c:	c7 40 48 cc 59 10 00 	movl   $0x1059cc,0x48(%eax)
  100293:	90                   	nop
  100294:	eb 03                	jmp    100299 <cpuid_set_strings+0x1ee>
  100296:	90                   	nop
  100297:	eb 01                	jmp    10029a <cpuid_set_strings+0x1ef>
  100299:	90                   	nop
  10029a:	8b 45 08             	mov    0x8(%ebp),%eax
  10029d:	8b 40 20             	mov    0x20(%eax),%eax
  1002a0:	83 f8 17             	cmp    $0x17,%eax
  1002a3:	77 4a                	ja     1002ef <cpuid_set_strings+0x244>
  1002a5:	8b 45 08             	mov    0x8(%ebp),%eax
  1002a8:	8b 40 24             	mov    0x24(%eax),%eax
  1002ab:	3d b1 06 00 00       	cmp    $0x6b1,%eax
  1002b0:	74 0d                	je     1002bf <cpuid_set_strings+0x214>
  1002b2:	8b 45 08             	mov    0x8(%ebp),%eax
  1002b5:	8b 40 24             	mov    0x24(%eax),%eax
  1002b8:	3d 13 0f 00 00       	cmp    $0xf13,%eax
  1002bd:	75 18                	jne    1002d7 <cpuid_set_strings+0x22c>
  1002bf:	8b 45 08             	mov    0x8(%ebp),%eax
  1002c2:	8b 40 20             	mov    0x20(%eax),%eax
  1002c5:	8b 14 85 60 38 10 00 	mov    0x103860(,%eax,4),%edx
  1002cc:	8b 45 08             	mov    0x8(%ebp),%eax
  1002cf:	89 50 4c             	mov    %edx,0x4c(%eax)
  1002d2:	e9 1e 01 00 00       	jmp    1003f5 <cpuid_set_strings+0x34a>
  1002d7:	8b 45 08             	mov    0x8(%ebp),%eax
  1002da:	8b 40 20             	mov    0x20(%eax),%eax
  1002dd:	8b 14 85 00 38 10 00 	mov    0x103800(,%eax,4),%edx
  1002e4:	8b 45 08             	mov    0x8(%ebp),%eax
  1002e7:	89 50 4c             	mov    %edx,0x4c(%eax)
  1002ea:	e9 06 01 00 00       	jmp    1003f5 <cpuid_set_strings+0x34a>
  1002ef:	8b 45 08             	mov    0x8(%ebp),%eax
  1002f2:	c7 40 4c 06 57 10 00 	movl   $0x105706,0x4c(%eax)
  1002f9:	e9 f7 00 00 00       	jmp    1003f5 <cpuid_set_strings+0x34a>
  1002fe:	8b 45 08             	mov    0x8(%ebp),%eax
  100301:	8b 40 38             	mov    0x38(%eax),%eax
  100304:	83 f8 01             	cmp    $0x1,%eax
  100307:	0f 85 e8 00 00 00    	jne    1003f5 <cpuid_set_strings+0x34a>
  10030d:	8b 45 08             	mov    0x8(%ebp),%eax
  100310:	8b 40 08             	mov    0x8(%eax),%eax
  100313:	83 f8 05             	cmp    $0x5,%eax
  100316:	74 21                	je     100339 <cpuid_set_strings+0x28e>
  100318:	83 f8 06             	cmp    $0x6,%eax
  10031b:	0f 84 84 00 00 00    	je     1003a5 <cpuid_set_strings+0x2fa>
  100321:	83 f8 04             	cmp    $0x4,%eax
  100324:	0f 85 cb 00 00 00    	jne    1003f5 <cpuid_set_strings+0x34a>
  10032a:	8b 45 08             	mov    0x8(%ebp),%eax
  10032d:	c7 40 48 fd 59 10 00 	movl   $0x1059fd,0x48(%eax)
  100334:	e9 bc 00 00 00       	jmp    1003f5 <cpuid_set_strings+0x34a>
  100339:	8b 45 08             	mov    0x8(%ebp),%eax
  10033c:	8b 40 10             	mov    0x10(%eax),%eax
  10033f:	83 f8 09             	cmp    $0x9,%eax
  100342:	77 54                	ja     100398 <cpuid_set_strings+0x2ed>
  100344:	ba 01 00 00 00       	mov    $0x1,%edx
  100349:	89 d3                	mov    %edx,%ebx
  10034b:	89 c1                	mov    %eax,%ecx
  10034d:	d3 e3                	shl    %cl,%ebx
  10034f:	89 d8                	mov    %ebx,%eax
  100351:	89 c2                	mov    %eax,%edx
  100353:	81 e2 cf 00 00 00    	and    $0xcf,%edx
  100359:	85 d2                	test   %edx,%edx
  10035b:	75 17                	jne    100374 <cpuid_set_strings+0x2c9>
  10035d:	89 c2                	mov    %eax,%edx
  10035f:	81 e2 00 02 00 00    	and    $0x200,%edx
  100365:	85 d2                	test   %edx,%edx
  100367:	75 23                	jne    10038c <cpuid_set_strings+0x2e1>
  100369:	25 00 01 00 00       	and    $0x100,%eax
  10036e:	85 c0                	test   %eax,%eax
  100370:	75 0e                	jne    100380 <cpuid_set_strings+0x2d5>
  100372:	eb 24                	jmp    100398 <cpuid_set_strings+0x2ed>
  100374:	8b 45 08             	mov    0x8(%ebp),%eax
  100377:	c7 40 48 0a 5a 10 00 	movl   $0x105a0a,0x48(%eax)
  10037e:	eb 23                	jmp    1003a3 <cpuid_set_strings+0x2f8>
  100380:	8b 45 08             	mov    0x8(%ebp),%eax
  100383:	c7 40 48 16 5a 10 00 	movl   $0x105a16,0x48(%eax)
  10038a:	eb 17                	jmp    1003a3 <cpuid_set_strings+0x2f8>
  10038c:	8b 45 08             	mov    0x8(%ebp),%eax
  10038f:	c7 40 48 26 5a 10 00 	movl   $0x105a26,0x48(%eax)
  100396:	eb 0b                	jmp    1003a3 <cpuid_set_strings+0x2f8>
  100398:	8b 45 08             	mov    0x8(%ebp),%eax
  10039b:	c7 40 48 38 5a 10 00 	movl   $0x105a38,0x48(%eax)
  1003a2:	90                   	nop
  1003a3:	eb 50                	jmp    1003f5 <cpuid_set_strings+0x34a>
  1003a5:	8b 45 08             	mov    0x8(%ebp),%eax
  1003a8:	8b 40 10             	mov    0x10(%eax),%eax
  1003ab:	83 f8 07             	cmp    $0x7,%eax
  1003ae:	77 39                	ja     1003e9 <cpuid_set_strings+0x33e>
  1003b0:	8b 04 85 64 5b 10 00 	mov    0x105b64(,%eax,4),%eax
  1003b7:	ff e0                	jmp    *%eax
  1003b9:	8b 45 08             	mov    0x8(%ebp),%eax
  1003bc:	c7 40 48 47 5a 10 00 	movl   $0x105a47,0x48(%eax)
  1003c3:	eb 2f                	jmp    1003f4 <cpuid_set_strings+0x349>
  1003c5:	8b 45 08             	mov    0x8(%ebp),%eax
  1003c8:	c7 40 48 57 5a 10 00 	movl   $0x105a57,0x48(%eax)
  1003cf:	eb 23                	jmp    1003f4 <cpuid_set_strings+0x349>
  1003d1:	8b 45 08             	mov    0x8(%ebp),%eax
  1003d4:	c7 40 48 68 5a 10 00 	movl   $0x105a68,0x48(%eax)
  1003db:	eb 17                	jmp    1003f4 <cpuid_set_strings+0x349>
  1003dd:	8b 45 08             	mov    0x8(%ebp),%eax
  1003e0:	c7 40 48 88 5a 10 00 	movl   $0x105a88,0x48(%eax)
  1003e7:	eb 0b                	jmp    1003f4 <cpuid_set_strings+0x349>
  1003e9:	8b 45 08             	mov    0x8(%ebp),%eax
  1003ec:	c7 40 48 9d 5a 10 00 	movl   $0x105a9d,0x48(%eax)
  1003f3:	90                   	nop
  1003f4:	90                   	nop
  1003f5:	5b                   	pop    %ebx
  1003f6:	5d                   	pop    %ebp
  1003f7:	c3                   	ret    

001003f8 <cpuid_detect_intel>:
  1003f8:	55                   	push   %ebp
  1003f9:	89 e5                	mov    %esp,%ebp
  1003fb:	57                   	push   %edi
  1003fc:	56                   	push   %esi
  1003fd:	53                   	push   %ebx
  1003fe:	81 ec 8c 00 00 00    	sub    $0x8c,%esp
  100404:	c7 04 24 50 00 00 00 	movl   $0x50,(%esp)
  10040b:	e8 a3 0b 00 00       	call   100fb3 <kmalloc>
  100410:	89 45 d4             	mov    %eax,-0x2c(%ebp)
  100413:	c7 44 24 08 50 00 00 	movl   $0x50,0x8(%esp)
  10041a:	00 
  10041b:	c7 44 24 04 00 00 00 	movl   $0x0,0x4(%esp)
  100422:	00 
  100423:	8b 45 d4             	mov    -0x2c(%ebp),%eax
  100426:	89 04 24             	mov    %eax,(%esp)
  100429:	e8 6e 25 00 00       	call   10299c <memset>
  10042e:	c7 45 d0 ff ff ff ff 	movl   $0xffffffff,-0x30(%ebp)
  100435:	c7 45 80 01 00 00 00 	movl   $0x1,-0x80(%ebp)
  10043c:	8b 45 80             	mov    -0x80(%ebp),%eax
  10043f:	0f a2                	cpuid  
  100441:	89 d6                	mov    %edx,%esi
  100443:	89 cf                	mov    %ecx,%edi
  100445:	89 45 94             	mov    %eax,-0x6c(%ebp)
  100448:	8b 45 94             	mov    -0x6c(%ebp),%eax
  10044b:	89 45 cc             	mov    %eax,-0x34(%ebp)
  10044e:	89 5d c8             	mov    %ebx,-0x38(%ebp)
  100451:	89 7d c4             	mov    %edi,-0x3c(%ebp)
  100454:	89 75 c4             	mov    %esi,-0x3c(%ebp)
  100457:	c7 45 80 01 00 00 00 	movl   $0x1,-0x80(%ebp)
  10045e:	8b 45 80             	mov    -0x80(%ebp),%eax
  100461:	0f a2                	cpuid  
  100463:	89 c6                	mov    %eax,%esi
  100465:	8b 45 d4             	mov    -0x2c(%ebp),%eax
  100468:	89 70 28             	mov    %esi,0x28(%eax)
  10046b:	8b 45 d4             	mov    -0x2c(%ebp),%eax
  10046e:	89 58 2c             	mov    %ebx,0x2c(%eax)
  100471:	8b 45 d4             	mov    -0x2c(%ebp),%eax
  100474:	89 48 30             	mov    %ecx,0x30(%eax)
  100477:	8b 45 d4             	mov    -0x2c(%ebp),%eax
  10047a:	89 50 34             	mov    %edx,0x34(%eax)
  10047d:	8b 45 cc             	mov    -0x34(%ebp),%eax
  100480:	c1 e8 04             	shr    $0x4,%eax
  100483:	83 e0 0f             	and    $0xf,%eax
  100486:	89 45 c0             	mov    %eax,-0x40(%ebp)
  100489:	8b 45 cc             	mov    -0x34(%ebp),%eax
  10048c:	c1 e8 08             	shr    $0x8,%eax
  10048f:	83 e0 0f             	and    $0xf,%eax
  100492:	89 45 bc             	mov    %eax,-0x44(%ebp)
  100495:	8b 45 cc             	mov    -0x34(%ebp),%eax
  100498:	c1 e8 0c             	shr    $0xc,%eax
  10049b:	83 e0 03             	and    $0x3,%eax
  10049e:	89 45 b8             	mov    %eax,-0x48(%ebp)
  1004a1:	8b 45 c8             	mov    -0x38(%ebp),%eax
  1004a4:	25 ff 00 00 00       	and    $0xff,%eax
  1004a9:	89 45 b4             	mov    %eax,-0x4c(%ebp)
  1004ac:	8b 45 cc             	mov    -0x34(%ebp),%eax
  1004af:	83 e0 0f             	and    $0xf,%eax
  1004b2:	89 45 b0             	mov    %eax,-0x50(%ebp)
  1004b5:	8b 45 cc             	mov    -0x34(%ebp),%eax
  1004b8:	c1 e8 0e             	shr    $0xe,%eax
  1004bb:	89 45 ac             	mov    %eax,-0x54(%ebp)
  1004be:	8b 45 cc             	mov    -0x34(%ebp),%eax
  1004c1:	89 45 a8             	mov    %eax,-0x58(%ebp)
  1004c4:	8b 45 d4             	mov    -0x2c(%ebp),%eax
  1004c7:	8b 55 c0             	mov    -0x40(%ebp),%edx
  1004ca:	89 50 10             	mov    %edx,0x10(%eax)
  1004cd:	8b 45 d4             	mov    -0x2c(%ebp),%eax
  1004d0:	8b 55 bc             	mov    -0x44(%ebp),%edx
  1004d3:	89 50 08             	mov    %edx,0x8(%eax)
  1004d6:	8b 45 d4             	mov    -0x2c(%ebp),%eax
  1004d9:	8b 55 b8             	mov    -0x48(%ebp),%edx
  1004dc:	89 50 1c             	mov    %edx,0x1c(%eax)
  1004df:	8b 45 d4             	mov    -0x2c(%ebp),%eax
  1004e2:	8b 55 b4             	mov    -0x4c(%ebp),%edx
  1004e5:	89 50 20             	mov    %edx,0x20(%eax)
  1004e8:	8b 45 d4             	mov    -0x2c(%ebp),%eax
  1004eb:	8b 55 b0             	mov    -0x50(%ebp),%edx
  1004ee:	89 50 14             	mov    %edx,0x14(%eax)
  1004f1:	8b 45 d4             	mov    -0x2c(%ebp),%eax
  1004f4:	8b 55 ac             	mov    -0x54(%ebp),%edx
  1004f7:	89 50 18             	mov    %edx,0x18(%eax)
  1004fa:	8b 45 d4             	mov    -0x2c(%ebp),%eax
  1004fd:	8b 55 a8             	mov    -0x58(%ebp),%edx
  100500:	89 50 24             	mov    %edx,0x24(%eax)
  100503:	8b 45 d4             	mov    -0x2c(%ebp),%eax
  100506:	c7 40 38 00 00 00 00 	movl   $0x0,0x38(%eax)
  10050d:	83 7d bc 0f          	cmpl   $0xf,-0x44(%ebp)
  100511:	75 17                	jne    10052a <cpuid_detect_intel+0x132>
  100513:	8b 45 cc             	mov    -0x34(%ebp),%eax
  100516:	c1 e8 14             	shr    $0x14,%eax
  100519:	25 ff 00 00 00       	and    $0xff,%eax
  10051e:	89 45 d0             	mov    %eax,-0x30(%ebp)
  100521:	8b 45 d4             	mov    -0x2c(%ebp),%eax
  100524:	8b 55 d0             	mov    -0x30(%ebp),%edx
  100527:	89 50 0c             	mov    %edx,0xc(%eax)
  10052a:	c7 45 80 00 00 00 80 	movl   $0x80000000,-0x80(%ebp)
  100531:	8b 45 80             	mov    -0x80(%ebp),%eax
  100534:	0f a2                	cpuid  
  100536:	89 d6                	mov    %edx,%esi
  100538:	89 cf                	mov    %ecx,%edi
  10053a:	89 45 90             	mov    %eax,-0x70(%ebp)
  10053d:	8b 45 90             	mov    -0x70(%ebp),%eax
  100540:	89 45 a4             	mov    %eax,-0x5c(%ebp)
  100543:	89 5d c4             	mov    %ebx,-0x3c(%ebp)
  100546:	89 7d c4             	mov    %edi,-0x3c(%ebp)
  100549:	89 75 c4             	mov    %esi,-0x3c(%ebp)
  10054c:	81 7d a4 03 00 00 80 	cmpl   $0x80000003,-0x5c(%ebp)
  100553:	0f 86 a7 02 00 00    	jbe    100800 <cpuid_detect_intel+0x408>
  100559:	c7 04 24 41 00 00 00 	movl   $0x41,(%esp)
  100560:	e8 4e 0a 00 00       	call   100fb3 <kmalloc>
  100565:	89 45 a0             	mov    %eax,-0x60(%ebp)
  100568:	c7 44 24 08 41 00 00 	movl   $0x41,0x8(%esp)
  10056f:	00 
  100570:	c7 44 24 04 00 00 00 	movl   $0x0,0x4(%esp)
  100577:	00 
  100578:	8b 45 a0             	mov    -0x60(%ebp),%eax
  10057b:	89 04 24             	mov    %eax,(%esp)
  10057e:	e8 19 24 00 00       	call   10299c <memset>
  100583:	c6 45 e7 00          	movb   $0x0,-0x19(%ebp)
  100587:	81 7d a4 01 00 00 80 	cmpl   $0x80000001,-0x5c(%ebp)
  10058e:	0f 86 c3 00 00 00    	jbe    100657 <cpuid_detect_intel+0x25f>
  100594:	c7 45 80 02 00 00 80 	movl   $0x80000002,-0x80(%ebp)
  10059b:	8b 45 80             	mov    -0x80(%ebp),%eax
  10059e:	0f a2                	cpuid  
  1005a0:	89 d6                	mov    %edx,%esi
  1005a2:	89 cf                	mov    %ecx,%edi
  1005a4:	89 45 8c             	mov    %eax,-0x74(%ebp)
  1005a7:	8b 45 8c             	mov    -0x74(%ebp),%eax
  1005aa:	89 45 cc             	mov    %eax,-0x34(%ebp)
  1005ad:	89 5d c8             	mov    %ebx,-0x38(%ebp)
  1005b0:	89 7d 9c             	mov    %edi,-0x64(%ebp)
  1005b3:	89 75 98             	mov    %esi,-0x68(%ebp)
  1005b6:	c7 45 e0 00 00 00 00 	movl   $0x0,-0x20(%ebp)
  1005bd:	e9 87 00 00 00       	jmp    100649 <cpuid_detect_intel+0x251>
  1005c2:	0f b6 45 e7          	movzbl -0x19(%ebp),%eax
  1005c6:	03 45 e0             	add    -0x20(%ebp),%eax
  1005c9:	03 45 a0             	add    -0x60(%ebp),%eax
  1005cc:	8b 55 e0             	mov    -0x20(%ebp),%edx
  1005cf:	c1 e2 03             	shl    $0x3,%edx
  1005d2:	8b 5d cc             	mov    -0x34(%ebp),%ebx
  1005d5:	89 de                	mov    %ebx,%esi
  1005d7:	89 d1                	mov    %edx,%ecx
  1005d9:	d3 ee                	shr    %cl,%esi
  1005db:	89 f2                	mov    %esi,%edx
  1005dd:	88 10                	mov    %dl,(%eax)
  1005df:	8b 45 e0             	mov    -0x20(%ebp),%eax
  1005e2:	8d 50 04             	lea    0x4(%eax),%edx
  1005e5:	0f b6 45 e7          	movzbl -0x19(%ebp),%eax
  1005e9:	01 d0                	add    %edx,%eax
  1005eb:	03 45 a0             	add    -0x60(%ebp),%eax
  1005ee:	8b 55 e0             	mov    -0x20(%ebp),%edx
  1005f1:	c1 e2 03             	shl    $0x3,%edx
  1005f4:	8b 5d c8             	mov    -0x38(%ebp),%ebx
  1005f7:	89 de                	mov    %ebx,%esi
  1005f9:	89 d1                	mov    %edx,%ecx
  1005fb:	d3 ee                	shr    %cl,%esi
  1005fd:	89 f2                	mov    %esi,%edx
  1005ff:	88 10                	mov    %dl,(%eax)
  100601:	8b 45 e0             	mov    -0x20(%ebp),%eax
  100604:	8d 50 08             	lea    0x8(%eax),%edx
  100607:	0f b6 45 e7          	movzbl -0x19(%ebp),%eax
  10060b:	01 d0                	add    %edx,%eax
  10060d:	03 45 a0             	add    -0x60(%ebp),%eax
  100610:	8b 55 e0             	mov    -0x20(%ebp),%edx
  100613:	c1 e2 03             	shl    $0x3,%edx
  100616:	8b 5d 9c             	mov    -0x64(%ebp),%ebx
  100619:	89 de                	mov    %ebx,%esi
  10061b:	89 d1                	mov    %edx,%ecx
  10061d:	d3 ee                	shr    %cl,%esi
  10061f:	89 f2                	mov    %esi,%edx
  100621:	88 10                	mov    %dl,(%eax)
  100623:	8b 45 e0             	mov    -0x20(%ebp),%eax
  100626:	8d 50 0c             	lea    0xc(%eax),%edx
  100629:	0f b6 45 e7          	movzbl -0x19(%ebp),%eax
  10062d:	01 d0                	add    %edx,%eax
  10062f:	03 45 a0             	add    -0x60(%ebp),%eax
  100632:	8b 55 e0             	mov    -0x20(%ebp),%edx
  100635:	c1 e2 03             	shl    $0x3,%edx
  100638:	8b 5d 98             	mov    -0x68(%ebp),%ebx
  10063b:	89 de                	mov    %ebx,%esi
  10063d:	89 d1                	mov    %edx,%ecx
  10063f:	d3 ee                	shr    %cl,%esi
  100641:	89 f2                	mov    %esi,%edx
  100643:	88 10                	mov    %dl,(%eax)
  100645:	83 45 e0 01          	addl   $0x1,-0x20(%ebp)
  100649:	83 7d e0 03          	cmpl   $0x3,-0x20(%ebp)
  10064d:	0f 8e 6f ff ff ff    	jle    1005c2 <cpuid_detect_intel+0x1ca>
  100653:	80 45 e7 10          	addb   $0x10,-0x19(%ebp)
  100657:	81 7d a4 02 00 00 80 	cmpl   $0x80000002,-0x5c(%ebp)
  10065e:	0f 86 c3 00 00 00    	jbe    100727 <cpuid_detect_intel+0x32f>
  100664:	c7 45 80 03 00 00 80 	movl   $0x80000003,-0x80(%ebp)
  10066b:	8b 45 80             	mov    -0x80(%ebp),%eax
  10066e:	0f a2                	cpuid  
  100670:	89 d6                	mov    %edx,%esi
  100672:	89 cf                	mov    %ecx,%edi
  100674:	89 45 88             	mov    %eax,-0x78(%ebp)
  100677:	8b 45 88             	mov    -0x78(%ebp),%eax
  10067a:	89 45 cc             	mov    %eax,-0x34(%ebp)
  10067d:	89 5d c8             	mov    %ebx,-0x38(%ebp)
  100680:	89 7d 9c             	mov    %edi,-0x64(%ebp)
  100683:	89 75 98             	mov    %esi,-0x68(%ebp)
  100686:	c7 45 dc 00 00 00 00 	movl   $0x0,-0x24(%ebp)
  10068d:	e9 87 00 00 00       	jmp    100719 <cpuid_detect_intel+0x321>
  100692:	0f b6 45 e7          	movzbl -0x19(%ebp),%eax
  100696:	03 45 dc             	add    -0x24(%ebp),%eax
  100699:	03 45 a0             	add    -0x60(%ebp),%eax
  10069c:	8b 55 dc             	mov    -0x24(%ebp),%edx
  10069f:	c1 e2 03             	shl    $0x3,%edx
  1006a2:	8b 5d cc             	mov    -0x34(%ebp),%ebx
  1006a5:	89 de                	mov    %ebx,%esi
  1006a7:	89 d1                	mov    %edx,%ecx
  1006a9:	d3 ee                	shr    %cl,%esi
  1006ab:	89 f2                	mov    %esi,%edx
  1006ad:	88 10                	mov    %dl,(%eax)
  1006af:	8b 45 dc             	mov    -0x24(%ebp),%eax
  1006b2:	8d 50 04             	lea    0x4(%eax),%edx
  1006b5:	0f b6 45 e7          	movzbl -0x19(%ebp),%eax
  1006b9:	01 d0                	add    %edx,%eax
  1006bb:	03 45 a0             	add    -0x60(%ebp),%eax
  1006be:	8b 55 dc             	mov    -0x24(%ebp),%edx
  1006c1:	c1 e2 03             	shl    $0x3,%edx
  1006c4:	8b 5d c8             	mov    -0x38(%ebp),%ebx
  1006c7:	89 de                	mov    %ebx,%esi
  1006c9:	89 d1                	mov    %edx,%ecx
  1006cb:	d3 ee                	shr    %cl,%esi
  1006cd:	89 f2                	mov    %esi,%edx
  1006cf:	88 10                	mov    %dl,(%eax)
  1006d1:	8b 45 dc             	mov    -0x24(%ebp),%eax
  1006d4:	8d 50 08             	lea    0x8(%eax),%edx
  1006d7:	0f b6 45 e7          	movzbl -0x19(%ebp),%eax
  1006db:	01 d0                	add    %edx,%eax
  1006dd:	03 45 a0             	add    -0x60(%ebp),%eax
  1006e0:	8b 55 dc             	mov    -0x24(%ebp),%edx
  1006e3:	c1 e2 03             	shl    $0x3,%edx
  1006e6:	8b 5d 9c             	mov    -0x64(%ebp),%ebx
  1006e9:	89 de                	mov    %ebx,%esi
  1006eb:	89 d1                	mov    %edx,%ecx
  1006ed:	d3 ee                	shr    %cl,%esi
  1006ef:	89 f2                	mov    %esi,%edx
  1006f1:	88 10                	mov    %dl,(%eax)
  1006f3:	8b 45 dc             	mov    -0x24(%ebp),%eax
  1006f6:	8d 50 0c             	lea    0xc(%eax),%edx
  1006f9:	0f b6 45 e7          	movzbl -0x19(%ebp),%eax
  1006fd:	01 d0                	add    %edx,%eax
  1006ff:	03 45 a0             	add    -0x60(%ebp),%eax
  100702:	8b 55 dc             	mov    -0x24(%ebp),%edx
  100705:	c1 e2 03             	shl    $0x3,%edx
  100708:	8b 5d 98             	mov    -0x68(%ebp),%ebx
  10070b:	89 de                	mov    %ebx,%esi
  10070d:	89 d1                	mov    %edx,%ecx
  10070f:	d3 ee                	shr    %cl,%esi
  100711:	89 f2                	mov    %esi,%edx
  100713:	88 10                	mov    %dl,(%eax)
  100715:	83 45 dc 01          	addl   $0x1,-0x24(%ebp)
  100719:	83 7d dc 03          	cmpl   $0x3,-0x24(%ebp)
  10071d:	0f 8e 6f ff ff ff    	jle    100692 <cpuid_detect_intel+0x29a>
  100723:	80 45 e7 10          	addb   $0x10,-0x19(%ebp)
  100727:	81 7d a4 03 00 00 80 	cmpl   $0x80000003,-0x5c(%ebp)
  10072e:	0f 86 c3 00 00 00    	jbe    1007f7 <cpuid_detect_intel+0x3ff>
  100734:	c7 45 80 04 00 00 80 	movl   $0x80000004,-0x80(%ebp)
  10073b:	8b 45 80             	mov    -0x80(%ebp),%eax
  10073e:	0f a2                	cpuid  
  100740:	89 d6                	mov    %edx,%esi
  100742:	89 cf                	mov    %ecx,%edi
  100744:	89 45 84             	mov    %eax,-0x7c(%ebp)
  100747:	8b 45 84             	mov    -0x7c(%ebp),%eax
  10074a:	89 45 cc             	mov    %eax,-0x34(%ebp)
  10074d:	89 5d c8             	mov    %ebx,-0x38(%ebp)
  100750:	89 7d 9c             	mov    %edi,-0x64(%ebp)
  100753:	89 75 98             	mov    %esi,-0x68(%ebp)
  100756:	c7 45 d8 00 00 00 00 	movl   $0x0,-0x28(%ebp)
  10075d:	e9 87 00 00 00       	jmp    1007e9 <cpuid_detect_intel+0x3f1>
  100762:	0f b6 45 e7          	movzbl -0x19(%ebp),%eax
  100766:	03 45 d8             	add    -0x28(%ebp),%eax
  100769:	03 45 a0             	add    -0x60(%ebp),%eax
  10076c:	8b 55 d8             	mov    -0x28(%ebp),%edx
  10076f:	c1 e2 03             	shl    $0x3,%edx
  100772:	8b 5d cc             	mov    -0x34(%ebp),%ebx
  100775:	89 de                	mov    %ebx,%esi
  100777:	89 d1                	mov    %edx,%ecx
  100779:	d3 ee                	shr    %cl,%esi
  10077b:	89 f2                	mov    %esi,%edx
  10077d:	88 10                	mov    %dl,(%eax)
  10077f:	8b 45 d8             	mov    -0x28(%ebp),%eax
  100782:	8d 50 04             	lea    0x4(%eax),%edx
  100785:	0f b6 45 e7          	movzbl -0x19(%ebp),%eax
  100789:	01 d0                	add    %edx,%eax
  10078b:	03 45 a0             	add    -0x60(%ebp),%eax
  10078e:	8b 55 d8             	mov    -0x28(%ebp),%edx
  100791:	c1 e2 03             	shl    $0x3,%edx
  100794:	8b 5d c8             	mov    -0x38(%ebp),%ebx
  100797:	89 de                	mov    %ebx,%esi
  100799:	89 d1                	mov    %edx,%ecx
  10079b:	d3 ee                	shr    %cl,%esi
  10079d:	89 f2                	mov    %esi,%edx
  10079f:	88 10                	mov    %dl,(%eax)
  1007a1:	8b 45 d8             	mov    -0x28(%ebp),%eax
  1007a4:	8d 50 08             	lea    0x8(%eax),%edx
  1007a7:	0f b6 45 e7          	movzbl -0x19(%ebp),%eax
  1007ab:	01 d0                	add    %edx,%eax
  1007ad:	03 45 a0             	add    -0x60(%ebp),%eax
  1007b0:	8b 55 d8             	mov    -0x28(%ebp),%edx
  1007b3:	c1 e2 03             	shl    $0x3,%edx
  1007b6:	8b 5d 9c             	mov    -0x64(%ebp),%ebx
  1007b9:	89 de                	mov    %ebx,%esi
  1007bb:	89 d1                	mov    %edx,%ecx
  1007bd:	d3 ee                	shr    %cl,%esi
  1007bf:	89 f2                	mov    %esi,%edx
  1007c1:	88 10                	mov    %dl,(%eax)
  1007c3:	8b 45 d8             	mov    -0x28(%ebp),%eax
  1007c6:	8d 50 0c             	lea    0xc(%eax),%edx
  1007c9:	0f b6 45 e7          	movzbl -0x19(%ebp),%eax
  1007cd:	01 d0                	add    %edx,%eax
  1007cf:	03 45 a0             	add    -0x60(%ebp),%eax
  1007d2:	8b 55 d8             	mov    -0x28(%ebp),%edx
  1007d5:	c1 e2 03             	shl    $0x3,%edx
  1007d8:	8b 5d 98             	mov    -0x68(%ebp),%ebx
  1007db:	89 de                	mov    %ebx,%esi
  1007dd:	89 d1                	mov    %edx,%ecx
  1007df:	d3 ee                	shr    %cl,%esi
  1007e1:	89 f2                	mov    %esi,%edx
  1007e3:	88 10                	mov    %dl,(%eax)
  1007e5:	83 45 d8 01          	addl   $0x1,-0x28(%ebp)
  1007e9:	83 7d d8 03          	cmpl   $0x3,-0x28(%ebp)
  1007ed:	0f 8e 6f ff ff ff    	jle    100762 <cpuid_detect_intel+0x36a>
  1007f3:	80 45 e7 10          	addb   $0x10,-0x19(%ebp)
  1007f7:	8b 45 d4             	mov    -0x2c(%ebp),%eax
  1007fa:	8b 55 a0             	mov    -0x60(%ebp),%edx
  1007fd:	89 50 04             	mov    %edx,0x4(%eax)
  100800:	8b 45 d4             	mov    -0x2c(%ebp),%eax
  100803:	81 c4 8c 00 00 00    	add    $0x8c,%esp
  100809:	5b                   	pop    %ebx
  10080a:	5e                   	pop    %esi
  10080b:	5f                   	pop    %edi
  10080c:	5d                   	pop    %ebp
  10080d:	c3                   	ret    

0010080e <cpuid_detect_amd>:
  10080e:	55                   	push   %ebp
  10080f:	89 e5                	mov    %esp,%ebp
  100811:	57                   	push   %edi
  100812:	56                   	push   %esi
  100813:	53                   	push   %ebx
  100814:	83 ec 7c             	sub    $0x7c,%esp
  100817:	c7 04 24 50 00 00 00 	movl   $0x50,(%esp)
  10081e:	e8 90 07 00 00       	call   100fb3 <kmalloc>
  100823:	89 45 d8             	mov    %eax,-0x28(%ebp)
  100826:	c7 44 24 08 50 00 00 	movl   $0x50,0x8(%esp)
  10082d:	00 
  10082e:	c7 44 24 04 00 00 00 	movl   $0x0,0x4(%esp)
  100835:	00 
  100836:	8b 45 d8             	mov    -0x28(%ebp),%eax
  100839:	89 04 24             	mov    %eax,(%esp)
  10083c:	e8 5b 21 00 00       	call   10299c <memset>
  100841:	c7 45 94 01 00 00 00 	movl   $0x1,-0x6c(%ebp)
  100848:	8b 45 94             	mov    -0x6c(%ebp),%eax
  10084b:	0f a2                	cpuid  
  10084d:	89 d6                	mov    %edx,%esi
  10084f:	89 cf                	mov    %ecx,%edi
  100851:	89 45 a4             	mov    %eax,-0x5c(%ebp)
  100854:	8b 45 a4             	mov    -0x5c(%ebp),%eax
  100857:	89 45 d4             	mov    %eax,-0x2c(%ebp)
  10085a:	89 5d d0             	mov    %ebx,-0x30(%ebp)
  10085d:	89 7d d0             	mov    %edi,-0x30(%ebp)
  100860:	89 75 d0             	mov    %esi,-0x30(%ebp)
  100863:	c7 45 94 01 00 00 00 	movl   $0x1,-0x6c(%ebp)
  10086a:	8b 45 94             	mov    -0x6c(%ebp),%eax
  10086d:	0f a2                	cpuid  
  10086f:	89 c6                	mov    %eax,%esi
  100871:	8b 45 d8             	mov    -0x28(%ebp),%eax
  100874:	89 70 28             	mov    %esi,0x28(%eax)
  100877:	8b 45 d8             	mov    -0x28(%ebp),%eax
  10087a:	89 58 2c             	mov    %ebx,0x2c(%eax)
  10087d:	8b 45 d8             	mov    -0x28(%ebp),%eax
  100880:	89 48 30             	mov    %ecx,0x30(%eax)
  100883:	8b 45 d8             	mov    -0x28(%ebp),%eax
  100886:	89 50 34             	mov    %edx,0x34(%eax)
  100889:	8b 45 d4             	mov    -0x2c(%ebp),%eax
  10088c:	c1 e8 04             	shr    $0x4,%eax
  10088f:	83 e0 0f             	and    $0xf,%eax
  100892:	89 45 cc             	mov    %eax,-0x34(%ebp)
  100895:	8b 45 d4             	mov    -0x2c(%ebp),%eax
  100898:	c1 e8 08             	shr    $0x8,%eax
  10089b:	83 e0 0f             	and    $0xf,%eax
  10089e:	89 45 c8             	mov    %eax,-0x38(%ebp)
  1008a1:	8b 45 d4             	mov    -0x2c(%ebp),%eax
  1008a4:	83 e0 0f             	and    $0xf,%eax
  1008a7:	89 45 c4             	mov    %eax,-0x3c(%ebp)
  1008aa:	8b 45 d4             	mov    -0x2c(%ebp),%eax
  1008ad:	c1 e8 0c             	shr    $0xc,%eax
  1008b0:	89 45 c0             	mov    %eax,-0x40(%ebp)
  1008b3:	8b 45 d8             	mov    -0x28(%ebp),%eax
  1008b6:	8b 55 c8             	mov    -0x38(%ebp),%edx
  1008b9:	89 50 08             	mov    %edx,0x8(%eax)
  1008bc:	8b 45 d8             	mov    -0x28(%ebp),%eax
  1008bf:	8b 55 c4             	mov    -0x3c(%ebp),%edx
  1008c2:	89 50 14             	mov    %edx,0x14(%eax)
  1008c5:	8b 45 d8             	mov    -0x28(%ebp),%eax
  1008c8:	8b 55 cc             	mov    -0x34(%ebp),%edx
  1008cb:	89 50 10             	mov    %edx,0x10(%eax)
  1008ce:	8b 45 d8             	mov    -0x28(%ebp),%eax
  1008d1:	8b 55 c0             	mov    -0x40(%ebp),%edx
  1008d4:	89 50 18             	mov    %edx,0x18(%eax)
  1008d7:	8b 45 d8             	mov    -0x28(%ebp),%eax
  1008da:	c7 40 38 01 00 00 00 	movl   $0x1,0x38(%eax)
  1008e1:	c7 45 94 00 00 00 80 	movl   $0x80000000,-0x6c(%ebp)
  1008e8:	8b 45 94             	mov    -0x6c(%ebp),%eax
  1008eb:	0f a2                	cpuid  
  1008ed:	89 d6                	mov    %edx,%esi
  1008ef:	89 cf                	mov    %ecx,%edi
  1008f1:	89 45 a0             	mov    %eax,-0x60(%ebp)
  1008f4:	8b 45 a0             	mov    -0x60(%ebp),%eax
  1008f7:	89 45 bc             	mov    %eax,-0x44(%ebp)
  1008fa:	89 5d d0             	mov    %ebx,-0x30(%ebp)
  1008fd:	89 7d d0             	mov    %edi,-0x30(%ebp)
  100900:	89 75 d0             	mov    %esi,-0x30(%ebp)
  100903:	83 7d bc 00          	cmpl   $0x0,-0x44(%ebp)
  100907:	75 08                	jne    100911 <cpuid_detect_amd+0x103>
  100909:	8b 45 d8             	mov    -0x28(%ebp),%eax
  10090c:	e9 6a 01 00 00       	jmp    100a7b <cpuid_detect_amd+0x26d>
  100911:	8b 45 d8             	mov    -0x28(%ebp),%eax
  100914:	8b 55 bc             	mov    -0x44(%ebp),%edx
  100917:	89 10                	mov    %edx,(%eax)
  100919:	81 7d bc 01 00 00 80 	cmpl   $0x80000001,-0x44(%ebp)
  100920:	0f 86 16 01 00 00    	jbe    100a3c <cpuid_detect_amd+0x22e>
  100926:	c7 04 24 41 00 00 00 	movl   $0x41,(%esp)
  10092d:	e8 81 06 00 00       	call   100fb3 <kmalloc>
  100932:	89 45 b8             	mov    %eax,-0x48(%ebp)
  100935:	c7 44 24 08 41 00 00 	movl   $0x41,0x8(%esp)
  10093c:	00 
  10093d:	c7 44 24 04 00 00 00 	movl   $0x0,0x4(%esp)
  100944:	00 
  100945:	8b 45 b8             	mov    -0x48(%ebp),%eax
  100948:	89 04 24             	mov    %eax,(%esp)
  10094b:	e8 4c 20 00 00       	call   10299c <memset>
  100950:	c6 45 e3 00          	movb   $0x0,-0x1d(%ebp)
  100954:	c7 45 e4 02 00 00 80 	movl   $0x80000002,-0x1c(%ebp)
  10095b:	e9 c6 00 00 00       	jmp    100a26 <cpuid_detect_amd+0x218>
  100960:	8b 45 e4             	mov    -0x1c(%ebp),%eax
  100963:	89 45 94             	mov    %eax,-0x6c(%ebp)
  100966:	8b 45 94             	mov    -0x6c(%ebp),%eax
  100969:	0f a2                	cpuid  
  10096b:	89 d6                	mov    %edx,%esi
  10096d:	89 cf                	mov    %ecx,%edi
  10096f:	89 45 9c             	mov    %eax,-0x64(%ebp)
  100972:	8b 45 9c             	mov    -0x64(%ebp),%eax
  100975:	89 45 d4             	mov    %eax,-0x2c(%ebp)
  100978:	89 5d b4             	mov    %ebx,-0x4c(%ebp)
  10097b:	89 7d b0             	mov    %edi,-0x50(%ebp)
  10097e:	89 75 ac             	mov    %esi,-0x54(%ebp)
  100981:	c7 45 dc 00 00 00 00 	movl   $0x0,-0x24(%ebp)
  100988:	e9 87 00 00 00       	jmp    100a14 <cpuid_detect_amd+0x206>
  10098d:	0f b6 45 e3          	movzbl -0x1d(%ebp),%eax
  100991:	03 45 dc             	add    -0x24(%ebp),%eax
  100994:	03 45 b8             	add    -0x48(%ebp),%eax
  100997:	8b 55 dc             	mov    -0x24(%ebp),%edx
  10099a:	c1 e2 03             	shl    $0x3,%edx
  10099d:	8b 5d d4             	mov    -0x2c(%ebp),%ebx
  1009a0:	89 de                	mov    %ebx,%esi
  1009a2:	89 d1                	mov    %edx,%ecx
  1009a4:	d3 ee                	shr    %cl,%esi
  1009a6:	89 f2                	mov    %esi,%edx
  1009a8:	88 10                	mov    %dl,(%eax)
  1009aa:	8b 45 dc             	mov    -0x24(%ebp),%eax
  1009ad:	8d 50 04             	lea    0x4(%eax),%edx
  1009b0:	0f b6 45 e3          	movzbl -0x1d(%ebp),%eax
  1009b4:	01 d0                	add    %edx,%eax
  1009b6:	03 45 b8             	add    -0x48(%ebp),%eax
  1009b9:	8b 55 dc             	mov    -0x24(%ebp),%edx
  1009bc:	c1 e2 03             	shl    $0x3,%edx
  1009bf:	8b 5d b4             	mov    -0x4c(%ebp),%ebx
  1009c2:	89 de                	mov    %ebx,%esi
  1009c4:	89 d1                	mov    %edx,%ecx
  1009c6:	d3 ee                	shr    %cl,%esi
  1009c8:	89 f2                	mov    %esi,%edx
  1009ca:	88 10                	mov    %dl,(%eax)
  1009cc:	8b 45 dc             	mov    -0x24(%ebp),%eax
  1009cf:	8d 50 08             	lea    0x8(%eax),%edx
  1009d2:	0f b6 45 e3          	movzbl -0x1d(%ebp),%eax
  1009d6:	01 d0                	add    %edx,%eax
  1009d8:	03 45 b8             	add    -0x48(%ebp),%eax
  1009db:	8b 55 dc             	mov    -0x24(%ebp),%edx
  1009de:	c1 e2 03             	shl    $0x3,%edx
  1009e1:	8b 5d b0             	mov    -0x50(%ebp),%ebx
  1009e4:	89 de                	mov    %ebx,%esi
  1009e6:	89 d1                	mov    %edx,%ecx
  1009e8:	d3 ee                	shr    %cl,%esi
  1009ea:	89 f2                	mov    %esi,%edx
  1009ec:	88 10                	mov    %dl,(%eax)
  1009ee:	8b 45 dc             	mov    -0x24(%ebp),%eax
  1009f1:	8d 50 0c             	lea    0xc(%eax),%edx
  1009f4:	0f b6 45 e3          	movzbl -0x1d(%ebp),%eax
  1009f8:	01 d0                	add    %edx,%eax
  1009fa:	03 45 b8             	add    -0x48(%ebp),%eax
  1009fd:	8b 55 dc             	mov    -0x24(%ebp),%edx
  100a00:	c1 e2 03             	shl    $0x3,%edx
  100a03:	8b 5d ac             	mov    -0x54(%ebp),%ebx
  100a06:	89 de                	mov    %ebx,%esi
  100a08:	89 d1                	mov    %edx,%ecx
  100a0a:	d3 ee                	shr    %cl,%esi
  100a0c:	89 f2                	mov    %esi,%edx
  100a0e:	88 10                	mov    %dl,(%eax)
  100a10:	83 45 dc 01          	addl   $0x1,-0x24(%ebp)
  100a14:	83 7d dc 03          	cmpl   $0x3,-0x24(%ebp)
  100a18:	0f 8e 6f ff ff ff    	jle    10098d <cpuid_detect_amd+0x17f>
  100a1e:	80 45 e3 10          	addb   $0x10,-0x1d(%ebp)
  100a22:	83 45 e4 01          	addl   $0x1,-0x1c(%ebp)
  100a26:	81 7d e4 04 00 00 80 	cmpl   $0x80000004,-0x1c(%ebp)
  100a2d:	0f 86 2d ff ff ff    	jbe    100960 <cpuid_detect_amd+0x152>
  100a33:	8b 45 d8             	mov    -0x28(%ebp),%eax
  100a36:	8b 55 b8             	mov    -0x48(%ebp),%edx
  100a39:	89 50 04             	mov    %edx,0x4(%eax)
  100a3c:	81 7d bc 06 00 00 80 	cmpl   $0x80000006,-0x44(%ebp)
  100a43:	76 33                	jbe    100a78 <cpuid_detect_amd+0x26a>
  100a45:	c7 45 94 07 00 00 80 	movl   $0x80000007,-0x6c(%ebp)
  100a4c:	8b 45 94             	mov    -0x6c(%ebp),%eax
  100a4f:	0f a2                	cpuid  
  100a51:	89 d6                	mov    %edx,%esi
  100a53:	89 cf                	mov    %ecx,%edi
  100a55:	89 45 98             	mov    %eax,-0x68(%ebp)
  100a58:	8b 45 98             	mov    -0x68(%ebp),%eax
  100a5b:	89 45 d0             	mov    %eax,-0x30(%ebp)
  100a5e:	89 5d d0             	mov    %ebx,-0x30(%ebp)
  100a61:	89 7d d0             	mov    %edi,-0x30(%ebp)
  100a64:	89 75 ac             	mov    %esi,-0x54(%ebp)
  100a67:	8b 45 ac             	mov    -0x54(%ebp),%eax
  100a6a:	83 e0 01             	and    $0x1,%eax
  100a6d:	84 c0                	test   %al,%al
  100a6f:	74 07                	je     100a78 <cpuid_detect_amd+0x26a>
  100a71:	8b 45 d8             	mov    -0x28(%ebp),%eax
  100a74:	c6 40 3c 01          	movb   $0x1,0x3c(%eax)
  100a78:	8b 45 d8             	mov    -0x28(%ebp),%eax
  100a7b:	83 c4 7c             	add    $0x7c,%esp
  100a7e:	5b                   	pop    %ebx
  100a7f:	5e                   	pop    %esi
  100a80:	5f                   	pop    %edi
  100a81:	5d                   	pop    %ebp
  100a82:	c3                   	ret    
	...

00100a84 <error_init>:
  100a84:	55                   	push   %ebp
  100a85:	89 e5                	mov    %esp,%ebp
  100a87:	83 ec 18             	sub    $0x18,%esp
  100a8a:	c7 04 24 1f 00 00 00 	movl   $0x1f,(%esp)
  100a91:	e8 c4 27 00 00       	call   10325a <terminal_setColour>
  100a96:	e8 b9 2a 00 00       	call   103554 <terminal_clear>
  100a9b:	c7 04 24 1f 00 00 00 	movl   $0x1f,(%esp)
  100aa2:	e8 b3 27 00 00       	call   10325a <terminal_setColour>
  100aa7:	c7 44 24 04 02 00 00 	movl   $0x2,0x4(%esp)
  100aae:	00 
  100aaf:	c7 04 24 20 00 00 00 	movl   $0x20,(%esp)
  100ab6:	e8 24 2b 00 00       	call   1035df <terminal_setPos>
  100abb:	c7 04 24 84 5b 10 00 	movl   $0x105b84,(%esp)
  100ac2:	e8 ba 28 00 00       	call   103381 <terminal_write_string>
  100ac7:	c7 44 24 04 04 00 00 	movl   $0x4,0x4(%esp)
  100ace:	00 
  100acf:	c7 04 24 15 00 00 00 	movl   $0x15,(%esp)
  100ad6:	e8 04 2b 00 00       	call   1035df <terminal_setPos>
  100adb:	c7 04 24 94 5b 10 00 	movl   $0x105b94,(%esp)
  100ae2:	e8 9a 28 00 00       	call   103381 <terminal_write_string>
  100ae7:	c9                   	leave  
  100ae8:	c3                   	ret    

00100ae9 <error_dump_regs>:
  100ae9:	55                   	push   %ebp
  100aea:	89 e5                	mov    %esp,%ebp
  100aec:	83 ec 68             	sub    $0x68,%esp
  100aef:	c7 44 24 04 06 00 00 	movl   $0x6,0x4(%esp)
  100af6:	00 
  100af7:	c7 04 24 04 00 00 00 	movl   $0x4,(%esp)
  100afe:	e8 dc 2a 00 00       	call   1035df <terminal_setPos>
  100b03:	c7 04 24 f4 00 00 00 	movl   $0xf4,(%esp)
  100b0a:	e8 4b 27 00 00       	call   10325a <terminal_setColour>
  100b0f:	8b 45 2c             	mov    0x2c(%ebp),%eax
  100b12:	c1 e0 02             	shl    $0x2,%eax
  100b15:	8d 14 c5 00 00 00 00 	lea    0x0(,%eax,8),%edx
  100b1c:	89 d1                	mov    %edx,%ecx
  100b1e:	29 c1                	sub    %eax,%ecx
  100b20:	89 c8                	mov    %ecx,%eax
  100b22:	05 c0 38 10 00       	add    $0x1038c0,%eax
  100b27:	89 04 24             	mov    %eax,(%esp)
  100b2a:	e8 52 28 00 00       	call   103381 <terminal_write_string>
  100b2f:	c7 04 24 1f 00 00 00 	movl   $0x1f,(%esp)
  100b36:	e8 1f 27 00 00       	call   10325a <terminal_setColour>
  100b3b:	c7 44 24 04 08 00 00 	movl   $0x8,0x4(%esp)
  100b42:	00 
  100b43:	c7 04 24 04 00 00 00 	movl   $0x4,(%esp)
  100b4a:	e8 90 2a 00 00       	call   1035df <terminal_setPos>
  100b4f:	c7 04 24 bb 5b 10 00 	movl   $0x105bbb,(%esp)
  100b56:	e8 26 28 00 00       	call   103381 <terminal_write_string>
  100b5b:	8b 45 30             	mov    0x30(%ebp),%eax
  100b5e:	0f b6 c0             	movzbl %al,%eax
  100b61:	89 04 24             	mov    %eax,(%esp)
  100b64:	e8 63 28 00 00       	call   1033cc <terminal_write_byte>
  100b69:	8b 45 08             	mov    0x8(%ebp),%eax
  100b6c:	89 45 ac             	mov    %eax,-0x54(%ebp)
  100b6f:	8b 45 0c             	mov    0xc(%ebp),%eax
  100b72:	89 45 b0             	mov    %eax,-0x50(%ebp)
  100b75:	8b 45 10             	mov    0x10(%ebp),%eax
  100b78:	89 45 b4             	mov    %eax,-0x4c(%ebp)
  100b7b:	8b 45 14             	mov    0x14(%ebp),%eax
  100b7e:	89 45 b8             	mov    %eax,-0x48(%ebp)
  100b81:	8b 45 18             	mov    0x18(%ebp),%eax
  100b84:	89 45 bc             	mov    %eax,-0x44(%ebp)
  100b87:	8b 45 1c             	mov    0x1c(%ebp),%eax
  100b8a:	89 45 c0             	mov    %eax,-0x40(%ebp)
  100b8d:	8b 45 20             	mov    0x20(%ebp),%eax
  100b90:	89 45 c4             	mov    %eax,-0x3c(%ebp)
  100b93:	8b 45 24             	mov    0x24(%ebp),%eax
  100b96:	89 45 c8             	mov    %eax,-0x38(%ebp)
  100b99:	8b 45 28             	mov    0x28(%ebp),%eax
  100b9c:	89 45 cc             	mov    %eax,-0x34(%ebp)
  100b9f:	8b 45 34             	mov    0x34(%ebp),%eax
  100ba2:	89 45 d0             	mov    %eax,-0x30(%ebp)
  100ba5:	8b 45 38             	mov    0x38(%ebp),%eax
  100ba8:	89 45 d4             	mov    %eax,-0x2c(%ebp)
  100bab:	8b 45 3c             	mov    0x3c(%ebp),%eax
  100bae:	89 45 d8             	mov    %eax,-0x28(%ebp)
  100bb1:	8b 45 40             	mov    0x40(%ebp),%eax
  100bb4:	89 45 dc             	mov    %eax,-0x24(%ebp)
  100bb7:	8b 45 44             	mov    0x44(%ebp),%eax
  100bba:	89 45 e0             	mov    %eax,-0x20(%ebp)
  100bbd:	a1 18 70 10 00       	mov    0x107018,%eax
  100bc2:	89 45 e4             	mov    %eax,-0x1c(%ebp)
  100bc5:	a1 14 70 10 00       	mov    0x107014,%eax
  100bca:	89 45 e8             	mov    %eax,-0x18(%ebp)
  100bcd:	a1 10 70 10 00       	mov    0x107010,%eax
  100bd2:	89 45 ec             	mov    %eax,-0x14(%ebp)
  100bd5:	a1 0c 70 10 00       	mov    0x10700c,%eax
  100bda:	89 45 f0             	mov    %eax,-0x10(%ebp)
  100bdd:	c6 45 f7 00          	movb   $0x0,-0x9(%ebp)
  100be1:	e9 8a 00 00 00       	jmp    100c70 <error_dump_regs+0x187>
  100be6:	0f b6 45 f7          	movzbl -0x9(%ebp),%eax
  100bea:	d0 e8                	shr    %al
  100bec:	83 c0 0a             	add    $0xa,%eax
  100bef:	0f b6 c0             	movzbl %al,%eax
  100bf2:	89 44 24 04          	mov    %eax,0x4(%esp)
  100bf6:	c7 04 24 04 00 00 00 	movl   $0x4,(%esp)
  100bfd:	e8 dd 29 00 00       	call   1035df <terminal_setPos>
  100c02:	0f b6 45 f7          	movzbl -0x9(%ebp),%eax
  100c06:	c1 e0 03             	shl    $0x3,%eax
  100c09:	05 e0 3a 10 00       	add    $0x103ae0,%eax
  100c0e:	89 04 24             	mov    %eax,(%esp)
  100c11:	e8 6b 27 00 00       	call   103381 <terminal_write_string>
  100c16:	0f b6 45 f7          	movzbl -0x9(%ebp),%eax
  100c1a:	8b 44 85 ac          	mov    -0x54(%ebp,%eax,4),%eax
  100c1e:	89 04 24             	mov    %eax,(%esp)
  100c21:	e8 37 28 00 00       	call   10345d <terminal_write_dword>
  100c26:	0f b6 45 f7          	movzbl -0x9(%ebp),%eax
  100c2a:	d0 e8                	shr    %al
  100c2c:	83 c0 0a             	add    $0xa,%eax
  100c2f:	0f b6 c0             	movzbl %al,%eax
  100c32:	89 44 24 04          	mov    %eax,0x4(%esp)
  100c36:	c7 04 24 16 00 00 00 	movl   $0x16,(%esp)
  100c3d:	e8 9d 29 00 00       	call   1035df <terminal_setPos>
  100c42:	0f b6 45 f7          	movzbl -0x9(%ebp),%eax
  100c46:	83 c0 01             	add    $0x1,%eax
  100c49:	c1 e0 03             	shl    $0x3,%eax
  100c4c:	05 e0 3a 10 00       	add    $0x103ae0,%eax
  100c51:	89 04 24             	mov    %eax,(%esp)
  100c54:	e8 28 27 00 00       	call   103381 <terminal_write_string>
  100c59:	0f b6 45 f7          	movzbl -0x9(%ebp),%eax
  100c5d:	83 c0 01             	add    $0x1,%eax
  100c60:	8b 44 85 ac          	mov    -0x54(%ebp,%eax,4),%eax
  100c64:	89 04 24             	mov    %eax,(%esp)
  100c67:	e8 f1 27 00 00       	call   10345d <terminal_write_dword>
  100c6c:	80 45 f7 02          	addb   $0x2,-0x9(%ebp)
  100c70:	80 7d f7 11          	cmpb   $0x11,-0x9(%ebp)
  100c74:	0f 86 6c ff ff ff    	jbe    100be6 <error_dump_regs+0xfd>
  100c7a:	c9                   	leave  
  100c7b:	c3                   	ret    

00100c7c <error_handler>:
  100c7c:	55                   	push   %ebp
  100c7d:	89 e5                	mov    %esp,%ebp
  100c7f:	53                   	push   %ebx
  100c80:	83 ec 54             	sub    $0x54,%esp
  100c83:	0f 20 d3             	mov    %cr2,%ebx
  100c86:	89 5d f4             	mov    %ebx,-0xc(%ebp)
  100c89:	8b 45 f4             	mov    -0xc(%ebp),%eax
  100c8c:	a3 10 70 10 00       	mov    %eax,0x107010
  100c91:	0f 20 c3             	mov    %cr0,%ebx
  100c94:	89 5d f4             	mov    %ebx,-0xc(%ebp)
  100c97:	8b 45 f4             	mov    -0xc(%ebp),%eax
  100c9a:	a3 18 70 10 00       	mov    %eax,0x107018
  100c9f:	0f 20 db             	mov    %cr3,%ebx
  100ca2:	89 5d f4             	mov    %ebx,-0xc(%ebp)
  100ca5:	8b 45 f4             	mov    -0xc(%ebp),%eax
  100ca8:	a3 0c 70 10 00       	mov    %eax,0x10700c
  100cad:	e8 d2 fd ff ff       	call   100a84 <error_init>
  100cb2:	8b 45 08             	mov    0x8(%ebp),%eax
  100cb5:	89 04 24             	mov    %eax,(%esp)
  100cb8:	8b 45 0c             	mov    0xc(%ebp),%eax
  100cbb:	89 44 24 04          	mov    %eax,0x4(%esp)
  100cbf:	8b 45 10             	mov    0x10(%ebp),%eax
  100cc2:	89 44 24 08          	mov    %eax,0x8(%esp)
  100cc6:	8b 45 14             	mov    0x14(%ebp),%eax
  100cc9:	89 44 24 0c          	mov    %eax,0xc(%esp)
  100ccd:	8b 45 18             	mov    0x18(%ebp),%eax
  100cd0:	89 44 24 10          	mov    %eax,0x10(%esp)
  100cd4:	8b 45 1c             	mov    0x1c(%ebp),%eax
  100cd7:	89 44 24 14          	mov    %eax,0x14(%esp)
  100cdb:	8b 45 20             	mov    0x20(%ebp),%eax
  100cde:	89 44 24 18          	mov    %eax,0x18(%esp)
  100ce2:	8b 45 24             	mov    0x24(%ebp),%eax
  100ce5:	89 44 24 1c          	mov    %eax,0x1c(%esp)
  100ce9:	8b 45 28             	mov    0x28(%ebp),%eax
  100cec:	89 44 24 20          	mov    %eax,0x20(%esp)
  100cf0:	8b 45 2c             	mov    0x2c(%ebp),%eax
  100cf3:	89 44 24 24          	mov    %eax,0x24(%esp)
  100cf7:	8b 45 30             	mov    0x30(%ebp),%eax
  100cfa:	89 44 24 28          	mov    %eax,0x28(%esp)
  100cfe:	8b 45 34             	mov    0x34(%ebp),%eax
  100d01:	89 44 24 2c          	mov    %eax,0x2c(%esp)
  100d05:	8b 45 38             	mov    0x38(%ebp),%eax
  100d08:	89 44 24 30          	mov    %eax,0x30(%esp)
  100d0c:	8b 45 3c             	mov    0x3c(%ebp),%eax
  100d0f:	89 44 24 34          	mov    %eax,0x34(%esp)
  100d13:	8b 45 40             	mov    0x40(%ebp),%eax
  100d16:	89 44 24 38          	mov    %eax,0x38(%esp)
  100d1a:	8b 45 44             	mov    0x44(%ebp),%eax
  100d1d:	89 44 24 3c          	mov    %eax,0x3c(%esp)
  100d21:	e8 c3 fd ff ff       	call   100ae9 <error_dump_regs>
  100d26:	eb fe                	jmp    100d26 <error_handler+0xaa>

00100d28 <io_outb>:
  100d28:	55                   	push   %ebp
  100d29:	89 e5                	mov    %esp,%ebp
  100d2b:	83 ec 08             	sub    $0x8,%esp
  100d2e:	8b 55 08             	mov    0x8(%ebp),%edx
  100d31:	8b 45 0c             	mov    0xc(%ebp),%eax
  100d34:	66 89 55 fc          	mov    %dx,-0x4(%ebp)
  100d38:	88 45 f8             	mov    %al,-0x8(%ebp)
  100d3b:	0f b6 45 f8          	movzbl -0x8(%ebp),%eax
  100d3f:	0f b7 55 fc          	movzwl -0x4(%ebp),%edx
  100d43:	ee                   	out    %al,(%dx)
  100d44:	c9                   	leave  
  100d45:	c3                   	ret    

00100d46 <io_inb>:
  100d46:	55                   	push   %ebp
  100d47:	89 e5                	mov    %esp,%ebp
  100d49:	53                   	push   %ebx
  100d4a:	83 ec 14             	sub    $0x14,%esp
  100d4d:	8b 45 08             	mov    0x8(%ebp),%eax
  100d50:	66 89 45 e8          	mov    %ax,-0x18(%ebp)
  100d54:	0f b7 55 e8          	movzwl -0x18(%ebp),%edx
  100d58:	66 89 55 ea          	mov    %dx,-0x16(%ebp)
  100d5c:	0f b7 55 ea          	movzwl -0x16(%ebp),%edx
  100d60:	ec                   	in     (%dx),%al
  100d61:	89 c3                	mov    %eax,%ebx
  100d63:	88 5d fb             	mov    %bl,-0x5(%ebp)
  100d66:	0f b6 45 fb          	movzbl -0x5(%ebp),%eax
  100d6a:	83 c4 14             	add    $0x14,%esp
  100d6d:	5b                   	pop    %ebx
  100d6e:	5d                   	pop    %ebp
  100d6f:	c3                   	ret    

00100d70 <io_wait>:
  100d70:	55                   	push   %ebp
  100d71:	89 e5                	mov    %esp,%ebp
  100d73:	b8 00 00 00 00       	mov    $0x0,%eax
  100d78:	e6 80                	out    %al,$0x80
  100d7a:	5d                   	pop    %ebp
  100d7b:	c3                   	ret    
  100d7c:	00 00                	add    %al,(%eax)
	...

00100d80 <sys_dummy_irq>:
  100d80:	cf                   	iret   
  100d81:	eb 0d                	jmp    100d90 <sys_timer_tick_irq>
  100d83:	90                   	nop
  100d84:	90                   	nop
  100d85:	90                   	nop
  100d86:	90                   	nop
  100d87:	90                   	nop
  100d88:	90                   	nop
  100d89:	90                   	nop
  100d8a:	90                   	nop
  100d8b:	90                   	nop
  100d8c:	90                   	nop
  100d8d:	90                   	nop
  100d8e:	90                   	nop
  100d8f:	90                   	nop

00100d90 <sys_timer_tick_irq>:
  100d90:	60                   	pusha  
  100d91:	e8 e5 23 00 00       	call   10317b <sys_timer_tick_handler>
  100d96:	61                   	popa   
  100d97:	cf                   	iret   
  100d98:	90                   	nop
  100d99:	8d b4 26 00 00 00 00 	lea    0x0(%esi,%eiz,1),%esi

00100da0 <sys_page_fault_irq>:
  100da0:	60                   	pusha  
  100da1:	e8 05 24 00 00       	call   1031ab <sys_page_fault_handler>
  100da6:	61                   	popa   
  100da7:	cf                   	iret   
  100da8:	90                   	nop
  100da9:	8d b4 26 00 00 00 00 	lea    0x0(%esi,%eiz,1),%esi

00100db0 <isr0>:
  100db0:	fa                   	cli    
  100db1:	6a 00                	push   $0x0
  100db3:	6a 00                	push   $0x0
  100db5:	eb 79                	jmp    100e30 <error_common_stub>

00100db7 <isr1>:
  100db7:	fa                   	cli    
  100db8:	6a 00                	push   $0x0
  100dba:	6a 01                	push   $0x1
  100dbc:	eb 72                	jmp    100e30 <error_common_stub>

00100dbe <isr2>:
  100dbe:	fa                   	cli    
  100dbf:	6a 00                	push   $0x0
  100dc1:	6a 02                	push   $0x2
  100dc3:	eb 6b                	jmp    100e30 <error_common_stub>

00100dc5 <isr3>:
  100dc5:	fa                   	cli    
  100dc6:	6a 00                	push   $0x0
  100dc8:	6a 03                	push   $0x3
  100dca:	eb 64                	jmp    100e30 <error_common_stub>

00100dcc <isr4>:
  100dcc:	fa                   	cli    
  100dcd:	6a 00                	push   $0x0
  100dcf:	6a 04                	push   $0x4
  100dd1:	eb 5d                	jmp    100e30 <error_common_stub>

00100dd3 <isr5>:
  100dd3:	fa                   	cli    
  100dd4:	6a 00                	push   $0x0
  100dd6:	6a 05                	push   $0x5
  100dd8:	eb 56                	jmp    100e30 <error_common_stub>

00100dda <isr6>:
  100dda:	fa                   	cli    
  100ddb:	6a 00                	push   $0x0
  100ddd:	6a 06                	push   $0x6
  100ddf:	eb 4f                	jmp    100e30 <error_common_stub>

00100de1 <isr7>:
  100de1:	fa                   	cli    
  100de2:	6a 00                	push   $0x0
  100de4:	6a 07                	push   $0x7
  100de6:	eb 48                	jmp    100e30 <error_common_stub>

00100de8 <isr8>:
  100de8:	fa                   	cli    
  100de9:	6a 08                	push   $0x8
  100deb:	eb 43                	jmp    100e30 <error_common_stub>

00100ded <isr9>:
  100ded:	fa                   	cli    
  100dee:	6a 00                	push   $0x0
  100df0:	6a 09                	push   $0x9
  100df2:	eb 3c                	jmp    100e30 <error_common_stub>

00100df4 <isr10>:
  100df4:	fa                   	cli    
  100df5:	6a 0a                	push   $0xa
  100df7:	eb 37                	jmp    100e30 <error_common_stub>

00100df9 <isr11>:
  100df9:	fa                   	cli    
  100dfa:	6a 0b                	push   $0xb
  100dfc:	eb 32                	jmp    100e30 <error_common_stub>

00100dfe <isr12>:
  100dfe:	fa                   	cli    
  100dff:	6a 0c                	push   $0xc
  100e01:	eb 2d                	jmp    100e30 <error_common_stub>

00100e03 <isr13>:
  100e03:	fa                   	cli    
  100e04:	6a 0d                	push   $0xd
  100e06:	eb 28                	jmp    100e30 <error_common_stub>

00100e08 <isr14>:
  100e08:	fa                   	cli    
  100e09:	6a 0e                	push   $0xe
  100e0b:	eb 23                	jmp    100e30 <error_common_stub>

00100e0d <isr15>:
  100e0d:	fa                   	cli    
  100e0e:	6a 00                	push   $0x0
  100e10:	6a 0f                	push   $0xf
  100e12:	eb 1c                	jmp    100e30 <error_common_stub>

00100e14 <isr16>:
  100e14:	fa                   	cli    
  100e15:	6a 00                	push   $0x0
  100e17:	6a 10                	push   $0x10
  100e19:	eb 15                	jmp    100e30 <error_common_stub>

00100e1b <isr17>:
  100e1b:	fa                   	cli    
  100e1c:	6a 00                	push   $0x0
  100e1e:	6a 11                	push   $0x11
  100e20:	eb 0e                	jmp    100e30 <error_common_stub>

00100e22 <isr18>:
  100e22:	fa                   	cli    
  100e23:	6a 00                	push   $0x0
  100e25:	6a 12                	push   $0x12
  100e27:	eb 07                	jmp    100e30 <error_common_stub>
  100e29:	8d b4 26 00 00 00 00 	lea    0x0(%esi,%eiz,1),%esi

00100e30 <error_common_stub>:
  100e30:	60                   	pusha  
  100e31:	66 8c d8             	mov    %ds,%ax
  100e34:	50                   	push   %eax
  100e35:	66 b8 10 00          	mov    $0x10,%ax
  100e39:	8e d8                	mov    %eax,%ds
  100e3b:	8e c0                	mov    %eax,%es
  100e3d:	8e e0                	mov    %eax,%fs
  100e3f:	8e e8                	mov    %eax,%gs
  100e41:	e8 36 fe ff ff       	call   100c7c <error_handler>
  100e46:	58                   	pop    %eax
  100e47:	8e d8                	mov    %eax,%ds
  100e49:	8e c0                	mov    %eax,%es
  100e4b:	8e e0                	mov    %eax,%fs
  100e4d:	8e e8                	mov    %eax,%gs
  100e4f:	61                   	popa   
  100e50:	83 c4 08             	add    $0x8,%esp
  100e53:	fb                   	sti    
  100e54:	cf                   	iret   
  100e55:	00 00                	add    %al,(%eax)
	...

00100e58 <kmalloc_int>:
  100e58:	55                   	push   %ebp
  100e59:	89 e5                	mov    %esp,%ebp
  100e5b:	83 ec 38             	sub    $0x38,%esp
  100e5e:	8b 45 0c             	mov    0xc(%ebp),%eax
  100e61:	88 45 e4             	mov    %al,-0x1c(%ebp)
  100e64:	a1 00 70 10 00       	mov    0x107000,%eax
  100e69:	85 c0                	test   %eax,%eax
  100e6b:	74 66                	je     100ed3 <kmalloc_int+0x7b>
  100e6d:	8b 15 00 70 10 00    	mov    0x107000,%edx
  100e73:	0f b6 45 e4          	movzbl -0x1c(%ebp),%eax
  100e77:	89 54 24 08          	mov    %edx,0x8(%esp)
  100e7b:	89 44 24 04          	mov    %eax,0x4(%esp)
  100e7f:	8b 45 08             	mov    0x8(%ebp),%eax
  100e82:	89 04 24             	mov    %eax,(%esp)
  100e85:	e8 3e 05 00 00       	call   1013c8 <alloc>
  100e8a:	89 45 f4             	mov    %eax,-0xc(%ebp)
  100e8d:	83 7d 10 00          	cmpl   $0x0,0x10(%ebp)
  100e91:	74 3b                	je     100ece <kmalloc_int+0x76>
  100e93:	8b 15 04 70 10 00    	mov    0x107004,%edx
  100e99:	8b 45 f4             	mov    -0xc(%ebp),%eax
  100e9c:	89 54 24 08          	mov    %edx,0x8(%esp)
  100ea0:	c7 44 24 04 00 00 00 	movl   $0x0,0x4(%esp)
  100ea7:	00 
  100ea8:	89 04 24             	mov    %eax,(%esp)
  100eab:	e8 18 14 00 00       	call   1022c8 <paging_get_page>
  100eb0:	89 45 f0             	mov    %eax,-0x10(%ebp)
  100eb3:	8b 45 f0             	mov    -0x10(%ebp),%eax
  100eb6:	8b 00                	mov    (%eax),%eax
  100eb8:	c1 e8 0c             	shr    $0xc,%eax
  100ebb:	c1 e0 0c             	shl    $0xc,%eax
  100ebe:	8b 55 f4             	mov    -0xc(%ebp),%edx
  100ec1:	81 e2 ff 0f 00 00    	and    $0xfff,%edx
  100ec7:	01 c2                	add    %eax,%edx
  100ec9:	8b 45 10             	mov    0x10(%ebp),%eax
  100ecc:	89 10                	mov    %edx,(%eax)
  100ece:	8b 45 f4             	mov    -0xc(%ebp),%eax
  100ed1:	eb 5b                	jmp    100f2e <kmalloc_int+0xd6>
  100ed3:	80 7d e4 00          	cmpb   $0x0,-0x1c(%ebp)
  100ed7:	74 2c                	je     100f05 <kmalloc_int+0xad>
  100ed9:	a1 70 3b 10 00       	mov    0x103b70,%eax
  100ede:	25 00 f0 ff ff       	and    $0xfffff000,%eax
  100ee3:	85 c0                	test   %eax,%eax
  100ee5:	74 1e                	je     100f05 <kmalloc_int+0xad>
  100ee7:	a1 70 3b 10 00       	mov    0x103b70,%eax
  100eec:	25 00 f0 ff ff       	and    $0xfffff000,%eax
  100ef1:	a3 70 3b 10 00       	mov    %eax,0x103b70
  100ef6:	a1 70 3b 10 00       	mov    0x103b70,%eax
  100efb:	05 00 10 00 00       	add    $0x1000,%eax
  100f00:	a3 70 3b 10 00       	mov    %eax,0x103b70
  100f05:	83 7d 10 00          	cmpl   $0x0,0x10(%ebp)
  100f09:	74 0b                	je     100f16 <kmalloc_int+0xbe>
  100f0b:	8b 15 70 3b 10 00    	mov    0x103b70,%edx
  100f11:	8b 45 10             	mov    0x10(%ebp),%eax
  100f14:	89 10                	mov    %edx,(%eax)
  100f16:	a1 70 3b 10 00       	mov    0x103b70,%eax
  100f1b:	89 45 ec             	mov    %eax,-0x14(%ebp)
  100f1e:	a1 70 3b 10 00       	mov    0x103b70,%eax
  100f23:	03 45 08             	add    0x8(%ebp),%eax
  100f26:	a3 70 3b 10 00       	mov    %eax,0x103b70
  100f2b:	8b 45 ec             	mov    -0x14(%ebp),%eax
  100f2e:	c9                   	leave  
  100f2f:	c3                   	ret    

00100f30 <kfree>:
  100f30:	55                   	push   %ebp
  100f31:	89 e5                	mov    %esp,%ebp
  100f33:	83 ec 18             	sub    $0x18,%esp
  100f36:	a1 00 70 10 00       	mov    0x107000,%eax
  100f3b:	89 44 24 04          	mov    %eax,0x4(%esp)
  100f3f:	8b 45 08             	mov    0x8(%ebp),%eax
  100f42:	89 04 24             	mov    %eax,(%esp)
  100f45:	e8 c7 07 00 00       	call   101711 <free>
  100f4a:	c9                   	leave  
  100f4b:	c3                   	ret    

00100f4c <kmalloc_a>:
  100f4c:	55                   	push   %ebp
  100f4d:	89 e5                	mov    %esp,%ebp
  100f4f:	83 ec 18             	sub    $0x18,%esp
  100f52:	c7 44 24 08 00 00 00 	movl   $0x0,0x8(%esp)
  100f59:	00 
  100f5a:	c7 44 24 04 01 00 00 	movl   $0x1,0x4(%esp)
  100f61:	00 
  100f62:	8b 45 08             	mov    0x8(%ebp),%eax
  100f65:	89 04 24             	mov    %eax,(%esp)
  100f68:	e8 eb fe ff ff       	call   100e58 <kmalloc_int>
  100f6d:	c9                   	leave  
  100f6e:	c3                   	ret    

00100f6f <kmalloc_p>:
  100f6f:	55                   	push   %ebp
  100f70:	89 e5                	mov    %esp,%ebp
  100f72:	83 ec 18             	sub    $0x18,%esp
  100f75:	8b 45 0c             	mov    0xc(%ebp),%eax
  100f78:	89 44 24 08          	mov    %eax,0x8(%esp)
  100f7c:	c7 44 24 04 00 00 00 	movl   $0x0,0x4(%esp)
  100f83:	00 
  100f84:	8b 45 08             	mov    0x8(%ebp),%eax
  100f87:	89 04 24             	mov    %eax,(%esp)
  100f8a:	e8 c9 fe ff ff       	call   100e58 <kmalloc_int>
  100f8f:	c9                   	leave  
  100f90:	c3                   	ret    

00100f91 <kmalloc_ap>:
  100f91:	55                   	push   %ebp
  100f92:	89 e5                	mov    %esp,%ebp
  100f94:	83 ec 18             	sub    $0x18,%esp
  100f97:	8b 45 0c             	mov    0xc(%ebp),%eax
  100f9a:	89 44 24 08          	mov    %eax,0x8(%esp)
  100f9e:	c7 44 24 04 01 00 00 	movl   $0x1,0x4(%esp)
  100fa5:	00 
  100fa6:	8b 45 08             	mov    0x8(%ebp),%eax
  100fa9:	89 04 24             	mov    %eax,(%esp)
  100fac:	e8 a7 fe ff ff       	call   100e58 <kmalloc_int>
  100fb1:	c9                   	leave  
  100fb2:	c3                   	ret    

00100fb3 <kmalloc>:
  100fb3:	55                   	push   %ebp
  100fb4:	89 e5                	mov    %esp,%ebp
  100fb6:	83 ec 18             	sub    $0x18,%esp
  100fb9:	c7 44 24 08 00 00 00 	movl   $0x0,0x8(%esp)
  100fc0:	00 
  100fc1:	c7 44 24 04 00 00 00 	movl   $0x0,0x4(%esp)
  100fc8:	00 
  100fc9:	8b 45 08             	mov    0x8(%ebp),%eax
  100fcc:	89 04 24             	mov    %eax,(%esp)
  100fcf:	e8 84 fe ff ff       	call   100e58 <kmalloc_int>
  100fd4:	c9                   	leave  
  100fd5:	c3                   	ret    

00100fd6 <expand>:
  100fd6:	55                   	push   %ebp
  100fd7:	89 e5                	mov    %esp,%ebp
  100fd9:	56                   	push   %esi
  100fda:	53                   	push   %ebx
  100fdb:	83 ec 20             	sub    $0x20,%esp
  100fde:	8b 45 0c             	mov    0xc(%ebp),%eax
  100fe1:	8b 50 14             	mov    0x14(%eax),%edx
  100fe4:	8b 45 0c             	mov    0xc(%ebp),%eax
  100fe7:	8b 40 10             	mov    0x10(%eax),%eax
  100fea:	89 d1                	mov    %edx,%ecx
  100fec:	29 c1                	sub    %eax,%ecx
  100fee:	89 c8                	mov    %ecx,%eax
  100ff0:	3b 45 08             	cmp    0x8(%ebp),%eax
  100ff3:	72 1c                	jb     101011 <expand+0x3b>
  100ff5:	c7 44 24 08 c8 5b 10 	movl   $0x105bc8,0x8(%esp)
  100ffc:	00 
  100ffd:	c7 44 24 04 39 00 00 	movl   $0x39,0x4(%esp)
  101004:	00 
  101005:	c7 04 24 fb 5b 10 00 	movl   $0x105bfb,(%esp)
  10100c:	e8 27 14 00 00       	call   102438 <panic_assert>
  101011:	8b 45 08             	mov    0x8(%ebp),%eax
  101014:	25 00 f0 ff ff       	and    $0xfffff000,%eax
  101019:	85 c0                	test   %eax,%eax
  10101b:	74 0e                	je     10102b <expand+0x55>
  10101d:	81 65 08 00 f0 ff ff 	andl   $0xfffff000,0x8(%ebp)
  101024:	81 45 08 00 10 00 00 	addl   $0x1000,0x8(%ebp)
  10102b:	8b 45 0c             	mov    0xc(%ebp),%eax
  10102e:	8b 40 10             	mov    0x10(%eax),%eax
  101031:	89 c2                	mov    %eax,%edx
  101033:	03 55 08             	add    0x8(%ebp),%edx
  101036:	8b 45 0c             	mov    0xc(%ebp),%eax
  101039:	8b 40 18             	mov    0x18(%eax),%eax
  10103c:	39 c2                	cmp    %eax,%edx
  10103e:	76 1c                	jbe    10105c <expand+0x86>
  101040:	c7 44 24 08 08 5c 10 	movl   $0x105c08,0x8(%esp)
  101047:	00 
  101048:	c7 44 24 04 42 00 00 	movl   $0x42,0x4(%esp)
  10104f:	00 
  101050:	c7 04 24 fb 5b 10 00 	movl   $0x105bfb,(%esp)
  101057:	e8 dc 13 00 00       	call   102438 <panic_assert>
  10105c:	8b 45 0c             	mov    0xc(%ebp),%eax
  10105f:	8b 50 14             	mov    0x14(%eax),%edx
  101062:	8b 45 0c             	mov    0xc(%ebp),%eax
  101065:	8b 40 10             	mov    0x10(%eax),%eax
  101068:	89 d1                	mov    %edx,%ecx
  10106a:	29 c1                	sub    %eax,%ecx
  10106c:	89 c8                	mov    %ecx,%eax
  10106e:	89 45 f0             	mov    %eax,-0x10(%ebp)
  101071:	8b 45 f0             	mov    -0x10(%ebp),%eax
  101074:	89 45 f4             	mov    %eax,-0xc(%ebp)
  101077:	eb 5b                	jmp    1010d4 <expand+0xfe>
  101079:	8b 45 0c             	mov    0xc(%ebp),%eax
  10107c:	0f b6 40 1d          	movzbl 0x1d(%eax),%eax
  101080:	84 c0                	test   %al,%al
  101082:	74 07                	je     10108b <expand+0xb5>
  101084:	bb 00 00 00 00       	mov    $0x0,%ebx
  101089:	eb 05                	jmp    101090 <expand+0xba>
  10108b:	bb 01 00 00 00       	mov    $0x1,%ebx
  101090:	8b 45 0c             	mov    0xc(%ebp),%eax
  101093:	0f b6 40 1c          	movzbl 0x1c(%eax),%eax
  101097:	0f b6 f0             	movzbl %al,%esi
  10109a:	8b 15 04 70 10 00    	mov    0x107004,%edx
  1010a0:	8b 45 0c             	mov    0xc(%ebp),%eax
  1010a3:	8b 40 10             	mov    0x10(%eax),%eax
  1010a6:	03 45 f4             	add    -0xc(%ebp),%eax
  1010a9:	89 54 24 08          	mov    %edx,0x8(%esp)
  1010ad:	c7 44 24 04 01 00 00 	movl   $0x1,0x4(%esp)
  1010b4:	00 
  1010b5:	89 04 24             	mov    %eax,(%esp)
  1010b8:	e8 0b 12 00 00       	call   1022c8 <paging_get_page>
  1010bd:	89 5c 24 08          	mov    %ebx,0x8(%esp)
  1010c1:	89 74 24 04          	mov    %esi,0x4(%esp)
  1010c5:	89 04 24             	mov    %eax,(%esp)
  1010c8:	e8 17 0f 00 00       	call   101fe4 <alloc_frame>
  1010cd:	81 45 f4 00 10 00 00 	addl   $0x1000,-0xc(%ebp)
  1010d4:	8b 45 f4             	mov    -0xc(%ebp),%eax
  1010d7:	3b 45 08             	cmp    0x8(%ebp),%eax
  1010da:	72 9d                	jb     101079 <expand+0xa3>
  1010dc:	8b 45 0c             	mov    0xc(%ebp),%eax
  1010df:	8b 40 10             	mov    0x10(%eax),%eax
  1010e2:	89 c2                	mov    %eax,%edx
  1010e4:	03 55 08             	add    0x8(%ebp),%edx
  1010e7:	8b 45 0c             	mov    0xc(%ebp),%eax
  1010ea:	89 50 14             	mov    %edx,0x14(%eax)
  1010ed:	83 c4 20             	add    $0x20,%esp
  1010f0:	5b                   	pop    %ebx
  1010f1:	5e                   	pop    %esi
  1010f2:	5d                   	pop    %ebp
  1010f3:	c3                   	ret    

001010f4 <contract>:
  1010f4:	55                   	push   %ebp
  1010f5:	89 e5                	mov    %esp,%ebp
  1010f7:	83 ec 28             	sub    $0x28,%esp
  1010fa:	8b 45 0c             	mov    0xc(%ebp),%eax
  1010fd:	8b 50 14             	mov    0x14(%eax),%edx
  101100:	8b 45 0c             	mov    0xc(%ebp),%eax
  101103:	8b 40 10             	mov    0x10(%eax),%eax
  101106:	89 d1                	mov    %edx,%ecx
  101108:	29 c1                	sub    %eax,%ecx
  10110a:	89 c8                	mov    %ecx,%eax
  10110c:	3b 45 08             	cmp    0x8(%ebp),%eax
  10110f:	77 1c                	ja     10112d <contract+0x39>
  101111:	c7 44 24 08 3c 5c 10 	movl   $0x105c3c,0x8(%esp)
  101118:	00 
  101119:	c7 44 24 04 52 00 00 	movl   $0x52,0x4(%esp)
  101120:	00 
  101121:	c7 04 24 fb 5b 10 00 	movl   $0x105bfb,(%esp)
  101128:	e8 0b 13 00 00       	call   102438 <panic_assert>
  10112d:	8b 45 08             	mov    0x8(%ebp),%eax
  101130:	25 00 10 00 00       	and    $0x1000,%eax
  101135:	85 c0                	test   %eax,%eax
  101137:	74 0e                	je     101147 <contract+0x53>
  101139:	81 65 08 00 10 00 00 	andl   $0x1000,0x8(%ebp)
  101140:	81 45 08 00 10 00 00 	addl   $0x1000,0x8(%ebp)
  101147:	81 7d 08 ff ff 06 00 	cmpl   $0x6ffff,0x8(%ebp)
  10114e:	77 07                	ja     101157 <contract+0x63>
  101150:	c7 45 08 00 00 07 00 	movl   $0x70000,0x8(%ebp)
  101157:	8b 45 0c             	mov    0xc(%ebp),%eax
  10115a:	8b 50 14             	mov    0x14(%eax),%edx
  10115d:	8b 45 0c             	mov    0xc(%ebp),%eax
  101160:	8b 40 10             	mov    0x10(%eax),%eax
  101163:	89 d1                	mov    %edx,%ecx
  101165:	29 c1                	sub    %eax,%ecx
  101167:	89 c8                	mov    %ecx,%eax
  101169:	89 45 f0             	mov    %eax,-0x10(%ebp)
  10116c:	8b 45 f0             	mov    -0x10(%ebp),%eax
  10116f:	2d 00 10 00 00       	sub    $0x1000,%eax
  101174:	89 45 f4             	mov    %eax,-0xc(%ebp)
  101177:	eb 32                	jmp    1011ab <contract+0xb7>
  101179:	8b 15 04 70 10 00    	mov    0x107004,%edx
  10117f:	8b 45 0c             	mov    0xc(%ebp),%eax
  101182:	8b 40 10             	mov    0x10(%eax),%eax
  101185:	03 45 f4             	add    -0xc(%ebp),%eax
  101188:	89 54 24 08          	mov    %edx,0x8(%esp)
  10118c:	c7 44 24 04 00 00 00 	movl   $0x0,0x4(%esp)
  101193:	00 
  101194:	89 04 24             	mov    %eax,(%esp)
  101197:	e8 2c 11 00 00       	call   1022c8 <paging_get_page>
  10119c:	89 04 24             	mov    %eax,(%esp)
  10119f:	e8 10 0f 00 00       	call   1020b4 <free_frame>
  1011a4:	81 6d f4 00 10 00 00 	subl   $0x1000,-0xc(%ebp)
  1011ab:	8b 45 08             	mov    0x8(%ebp),%eax
  1011ae:	3b 45 f4             	cmp    -0xc(%ebp),%eax
  1011b1:	72 c6                	jb     101179 <contract+0x85>
  1011b3:	8b 45 0c             	mov    0xc(%ebp),%eax
  1011b6:	8b 40 10             	mov    0x10(%eax),%eax
  1011b9:	89 c2                	mov    %eax,%edx
  1011bb:	03 55 08             	add    0x8(%ebp),%edx
  1011be:	8b 45 0c             	mov    0xc(%ebp),%eax
  1011c1:	89 50 14             	mov    %edx,0x14(%eax)
  1011c4:	8b 45 08             	mov    0x8(%ebp),%eax
  1011c7:	c9                   	leave  
  1011c8:	c3                   	ret    

001011c9 <find_smallest_hole>:
  1011c9:	55                   	push   %ebp
  1011ca:	89 e5                	mov    %esp,%ebp
  1011cc:	83 ec 48             	sub    $0x48,%esp
  1011cf:	8b 45 0c             	mov    0xc(%ebp),%eax
  1011d2:	88 45 d4             	mov    %al,-0x2c(%ebp)
  1011d5:	c7 45 f4 00 00 00 00 	movl   $0x0,-0xc(%ebp)
  1011dc:	eb 74                	jmp    101252 <find_smallest_hole+0x89>
  1011de:	8b 45 10             	mov    0x10(%ebp),%eax
  1011e1:	89 44 24 04          	mov    %eax,0x4(%esp)
  1011e5:	8b 45 f4             	mov    -0xc(%ebp),%eax
  1011e8:	89 04 24             	mov    %eax,(%esp)
  1011eb:	e8 e4 0b 00 00       	call   101dd4 <lookup_ordered_array>
  1011f0:	89 45 ec             	mov    %eax,-0x14(%ebp)
  1011f3:	80 7d d4 00          	cmpb   $0x0,-0x2c(%ebp)
  1011f7:	74 4a                	je     101243 <find_smallest_hole+0x7a>
  1011f9:	8b 45 ec             	mov    -0x14(%ebp),%eax
  1011fc:	89 45 e8             	mov    %eax,-0x18(%ebp)
  1011ff:	c7 45 f0 00 00 00 00 	movl   $0x0,-0x10(%ebp)
  101206:	8b 45 e8             	mov    -0x18(%ebp),%eax
  101209:	83 c0 0c             	add    $0xc,%eax
  10120c:	25 00 f0 ff ff       	and    $0xfffff000,%eax
  101211:	85 c0                	test   %eax,%eax
  101213:	74 18                	je     10122d <find_smallest_hole+0x64>
  101215:	8b 45 e8             	mov    -0x18(%ebp),%eax
  101218:	83 c0 0c             	add    $0xc,%eax
  10121b:	89 c2                	mov    %eax,%edx
  10121d:	81 e2 ff 0f 00 00    	and    $0xfff,%edx
  101223:	b8 00 10 00 00       	mov    $0x1000,%eax
  101228:	29 d0                	sub    %edx,%eax
  10122a:	89 45 f0             	mov    %eax,-0x10(%ebp)
  10122d:	8b 45 ec             	mov    -0x14(%ebp),%eax
  101230:	8b 40 08             	mov    0x8(%eax),%eax
  101233:	2b 45 f0             	sub    -0x10(%ebp),%eax
  101236:	89 45 e4             	mov    %eax,-0x1c(%ebp)
  101239:	8b 45 08             	mov    0x8(%ebp),%eax
  10123c:	3b 45 e4             	cmp    -0x1c(%ebp),%eax
  10123f:	7f 0d                	jg     10124e <find_smallest_hole+0x85>
  101241:	eb 1d                	jmp    101260 <find_smallest_hole+0x97>
  101243:	8b 45 ec             	mov    -0x14(%ebp),%eax
  101246:	8b 40 08             	mov    0x8(%eax),%eax
  101249:	3b 45 08             	cmp    0x8(%ebp),%eax
  10124c:	73 11                	jae    10125f <find_smallest_hole+0x96>
  10124e:	83 45 f4 01          	addl   $0x1,-0xc(%ebp)
  101252:	8b 45 10             	mov    0x10(%ebp),%eax
  101255:	8b 40 04             	mov    0x4(%eax),%eax
  101258:	3b 45 f4             	cmp    -0xc(%ebp),%eax
  10125b:	77 81                	ja     1011de <find_smallest_hole+0x15>
  10125d:	eb 01                	jmp    101260 <find_smallest_hole+0x97>
  10125f:	90                   	nop
  101260:	8b 45 10             	mov    0x10(%ebp),%eax
  101263:	8b 40 04             	mov    0x4(%eax),%eax
  101266:	3b 45 f4             	cmp    -0xc(%ebp),%eax
  101269:	75 07                	jne    101272 <find_smallest_hole+0xa9>
  10126b:	b8 ff ff ff ff       	mov    $0xffffffff,%eax
  101270:	eb 03                	jmp    101275 <find_smallest_hole+0xac>
  101272:	8b 45 f4             	mov    -0xc(%ebp),%eax
  101275:	c9                   	leave  
  101276:	c3                   	ret    

00101277 <header_t_less_than>:
  101277:	55                   	push   %ebp
  101278:	89 e5                	mov    %esp,%ebp
  10127a:	8b 45 08             	mov    0x8(%ebp),%eax
  10127d:	8b 50 08             	mov    0x8(%eax),%edx
  101280:	8b 45 0c             	mov    0xc(%ebp),%eax
  101283:	8b 40 08             	mov    0x8(%eax),%eax
  101286:	39 c2                	cmp    %eax,%edx
  101288:	0f 92 c0             	setb   %al
  10128b:	5d                   	pop    %ebp
  10128c:	c3                   	ret    

0010128d <create_heap>:
  10128d:	55                   	push   %ebp
  10128e:	89 e5                	mov    %esp,%ebp
  101290:	83 ec 48             	sub    $0x48,%esp
  101293:	8b 55 14             	mov    0x14(%ebp),%edx
  101296:	8b 45 18             	mov    0x18(%ebp),%eax
  101299:	88 55 d4             	mov    %dl,-0x2c(%ebp)
  10129c:	88 45 d0             	mov    %al,-0x30(%ebp)
  10129f:	c7 04 24 20 00 00 00 	movl   $0x20,(%esp)
  1012a6:	e8 08 fd ff ff       	call   100fb3 <kmalloc>
  1012ab:	89 45 f4             	mov    %eax,-0xc(%ebp)
  1012ae:	8b 45 08             	mov    0x8(%ebp),%eax
  1012b1:	25 ff 0f 00 00       	and    $0xfff,%eax
  1012b6:	85 c0                	test   %eax,%eax
  1012b8:	74 1c                	je     1012d6 <create_heap+0x49>
  1012ba:	c7 44 24 08 6d 5c 10 	movl   $0x105c6d,0x8(%esp)
  1012c1:	00 
  1012c2:	c7 44 24 04 92 00 00 	movl   $0x92,0x4(%esp)
  1012c9:	00 
  1012ca:	c7 04 24 fb 5b 10 00 	movl   $0x105bfb,(%esp)
  1012d1:	e8 62 11 00 00       	call   102438 <panic_assert>
  1012d6:	8b 45 0c             	mov    0xc(%ebp),%eax
  1012d9:	25 ff 0f 00 00       	and    $0xfff,%eax
  1012de:	85 c0                	test   %eax,%eax
  1012e0:	74 1c                	je     1012fe <create_heap+0x71>
  1012e2:	c7 44 24 08 81 5c 10 	movl   $0x105c81,0x8(%esp)
  1012e9:	00 
  1012ea:	c7 44 24 04 93 00 00 	movl   $0x93,0x4(%esp)
  1012f1:	00 
  1012f2:	c7 04 24 fb 5b 10 00 	movl   $0x105bfb,(%esp)
  1012f9:	e8 3a 11 00 00       	call   102438 <panic_assert>
  1012fe:	8b 55 08             	mov    0x8(%ebp),%edx
  101301:	8d 45 e0             	lea    -0x20(%ebp),%eax
  101304:	c7 44 24 0c 77 12 10 	movl   $0x101277,0xc(%esp)
  10130b:	00 
  10130c:	c7 44 24 08 00 00 02 	movl   $0x20000,0x8(%esp)
  101313:	00 
  101314:	89 54 24 04          	mov    %edx,0x4(%esp)
  101318:	89 04 24             	mov    %eax,(%esp)
  10131b:	e8 46 09 00 00       	call   101c66 <place_ordered_array>
  101320:	83 ec 04             	sub    $0x4,%esp
  101323:	8b 45 f4             	mov    -0xc(%ebp),%eax
  101326:	8b 55 e0             	mov    -0x20(%ebp),%edx
  101329:	89 10                	mov    %edx,(%eax)
  10132b:	8b 55 e4             	mov    -0x1c(%ebp),%edx
  10132e:	89 50 04             	mov    %edx,0x4(%eax)
  101331:	8b 55 e8             	mov    -0x18(%ebp),%edx
  101334:	89 50 08             	mov    %edx,0x8(%eax)
  101337:	8b 55 ec             	mov    -0x14(%ebp),%edx
  10133a:	89 50 0c             	mov    %edx,0xc(%eax)
  10133d:	81 45 08 00 00 08 00 	addl   $0x80000,0x8(%ebp)
  101344:	8b 45 08             	mov    0x8(%ebp),%eax
  101347:	25 00 f0 ff ff       	and    $0xfffff000,%eax
  10134c:	85 c0                	test   %eax,%eax
  10134e:	74 0e                	je     10135e <create_heap+0xd1>
  101350:	81 65 08 00 f0 ff ff 	andl   $0xfffff000,0x8(%ebp)
  101357:	81 45 08 00 10 00 00 	addl   $0x1000,0x8(%ebp)
  10135e:	8b 45 f4             	mov    -0xc(%ebp),%eax
  101361:	8b 55 08             	mov    0x8(%ebp),%edx
  101364:	89 50 10             	mov    %edx,0x10(%eax)
  101367:	8b 45 f4             	mov    -0xc(%ebp),%eax
  10136a:	8b 55 0c             	mov    0xc(%ebp),%edx
  10136d:	89 50 14             	mov    %edx,0x14(%eax)
  101370:	8b 45 f4             	mov    -0xc(%ebp),%eax
  101373:	8b 55 10             	mov    0x10(%ebp),%edx
  101376:	89 50 18             	mov    %edx,0x18(%eax)
  101379:	8b 45 f4             	mov    -0xc(%ebp),%eax
  10137c:	0f b6 55 d4          	movzbl -0x2c(%ebp),%edx
  101380:	88 50 1c             	mov    %dl,0x1c(%eax)
  101383:	8b 45 f4             	mov    -0xc(%ebp),%eax
  101386:	0f b6 55 d0          	movzbl -0x30(%ebp),%edx
  10138a:	88 50 1d             	mov    %dl,0x1d(%eax)
  10138d:	8b 45 08             	mov    0x8(%ebp),%eax
  101390:	89 45 f0             	mov    %eax,-0x10(%ebp)
  101393:	8b 45 08             	mov    0x8(%ebp),%eax
  101396:	8b 55 0c             	mov    0xc(%ebp),%edx
  101399:	29 c2                	sub    %eax,%edx
  10139b:	8b 45 f0             	mov    -0x10(%ebp),%eax
  10139e:	89 50 08             	mov    %edx,0x8(%eax)
  1013a1:	8b 45 f0             	mov    -0x10(%ebp),%eax
  1013a4:	c7 00 be ba fe ca    	movl   $0xcafebabe,(%eax)
  1013aa:	8b 45 f0             	mov    -0x10(%ebp),%eax
  1013ad:	c6 40 04 01          	movb   $0x1,0x4(%eax)
  1013b1:	8b 45 f4             	mov    -0xc(%ebp),%eax
  1013b4:	89 44 24 04          	mov    %eax,0x4(%esp)
  1013b8:	8b 45 f0             	mov    -0x10(%ebp),%eax
  1013bb:	89 04 24             	mov    %eax,(%esp)
  1013be:	e8 09 09 00 00       	call   101ccc <insert_ordered_array>
  1013c3:	8b 45 f4             	mov    -0xc(%ebp),%eax
  1013c6:	c9                   	leave  
  1013c7:	c3                   	ret    

001013c8 <alloc>:
  1013c8:	55                   	push   %ebp
  1013c9:	89 e5                	mov    %esp,%ebp
  1013cb:	53                   	push   %ebx
  1013cc:	81 ec 84 00 00 00    	sub    $0x84,%esp
  1013d2:	8b 45 0c             	mov    0xc(%ebp),%eax
  1013d5:	88 45 94             	mov    %al,-0x6c(%ebp)
  1013d8:	8b 45 08             	mov    0x8(%ebp),%eax
  1013db:	83 c0 14             	add    $0x14,%eax
  1013de:	89 45 f4             	mov    %eax,-0xc(%ebp)
  1013e1:	0f b6 45 94          	movzbl -0x6c(%ebp),%eax
  1013e5:	8b 55 10             	mov    0x10(%ebp),%edx
  1013e8:	89 54 24 08          	mov    %edx,0x8(%esp)
  1013ec:	89 44 24 04          	mov    %eax,0x4(%esp)
  1013f0:	8b 45 f4             	mov    -0xc(%ebp),%eax
  1013f3:	89 04 24             	mov    %eax,(%esp)
  1013f6:	e8 ce fd ff ff       	call   1011c9 <find_smallest_hole>
  1013fb:	89 45 f0             	mov    %eax,-0x10(%ebp)
  1013fe:	83 7d f0 ff          	cmpl   $0xffffffff,-0x10(%ebp)
  101402:	0f 85 6b 01 00 00    	jne    101573 <alloc+0x1ab>
  101408:	8b 45 10             	mov    0x10(%ebp),%eax
  10140b:	8b 50 14             	mov    0x14(%eax),%edx
  10140e:	8b 45 10             	mov    0x10(%ebp),%eax
  101411:	8b 40 10             	mov    0x10(%eax),%eax
  101414:	89 d1                	mov    %edx,%ecx
  101416:	29 c1                	sub    %eax,%ecx
  101418:	89 c8                	mov    %ecx,%eax
  10141a:	89 45 dc             	mov    %eax,-0x24(%ebp)
  10141d:	8b 45 10             	mov    0x10(%ebp),%eax
  101420:	8b 40 14             	mov    0x14(%eax),%eax
  101423:	89 45 d8             	mov    %eax,-0x28(%ebp)
  101426:	8b 45 f4             	mov    -0xc(%ebp),%eax
  101429:	8b 55 dc             	mov    -0x24(%ebp),%edx
  10142c:	01 c2                	add    %eax,%edx
  10142e:	8b 45 10             	mov    0x10(%ebp),%eax
  101431:	89 44 24 04          	mov    %eax,0x4(%esp)
  101435:	89 14 24             	mov    %edx,(%esp)
  101438:	e8 99 fb ff ff       	call   100fd6 <expand>
  10143d:	8b 45 10             	mov    0x10(%ebp),%eax
  101440:	8b 50 14             	mov    0x14(%eax),%edx
  101443:	8b 45 10             	mov    0x10(%ebp),%eax
  101446:	8b 40 10             	mov    0x10(%eax),%eax
  101449:	89 d3                	mov    %edx,%ebx
  10144b:	29 c3                	sub    %eax,%ebx
  10144d:	89 d8                	mov    %ebx,%eax
  10144f:	89 45 d4             	mov    %eax,-0x2c(%ebp)
  101452:	c7 45 f0 00 00 00 00 	movl   $0x0,-0x10(%ebp)
  101459:	c7 45 ec ff ff ff ff 	movl   $0xffffffff,-0x14(%ebp)
  101460:	c7 45 e8 00 00 00 00 	movl   $0x0,-0x18(%ebp)
  101467:	eb 2d                	jmp    101496 <alloc+0xce>
  101469:	8b 55 10             	mov    0x10(%ebp),%edx
  10146c:	8b 45 f0             	mov    -0x10(%ebp),%eax
  10146f:	89 54 24 04          	mov    %edx,0x4(%esp)
  101473:	89 04 24             	mov    %eax,(%esp)
  101476:	e8 59 09 00 00       	call   101dd4 <lookup_ordered_array>
  10147b:	89 45 d0             	mov    %eax,-0x30(%ebp)
  10147e:	8b 45 d0             	mov    -0x30(%ebp),%eax
  101481:	3b 45 e8             	cmp    -0x18(%ebp),%eax
  101484:	76 0c                	jbe    101492 <alloc+0xca>
  101486:	8b 45 d0             	mov    -0x30(%ebp),%eax
  101489:	89 45 e8             	mov    %eax,-0x18(%ebp)
  10148c:	8b 45 f0             	mov    -0x10(%ebp),%eax
  10148f:	89 45 ec             	mov    %eax,-0x14(%ebp)
  101492:	83 45 f0 01          	addl   $0x1,-0x10(%ebp)
  101496:	8b 55 f0             	mov    -0x10(%ebp),%edx
  101499:	8b 45 10             	mov    0x10(%ebp),%eax
  10149c:	8b 40 04             	mov    0x4(%eax),%eax
  10149f:	39 c2                	cmp    %eax,%edx
  1014a1:	72 c6                	jb     101469 <alloc+0xa1>
  1014a3:	83 7d ec ff          	cmpl   $0xffffffff,-0x14(%ebp)
  1014a7:	75 59                	jne    101502 <alloc+0x13a>
  1014a9:	8b 45 d8             	mov    -0x28(%ebp),%eax
  1014ac:	89 45 cc             	mov    %eax,-0x34(%ebp)
  1014af:	8b 45 cc             	mov    -0x34(%ebp),%eax
  1014b2:	c7 00 be ba fe ca    	movl   $0xcafebabe,(%eax)
  1014b8:	8b 45 dc             	mov    -0x24(%ebp),%eax
  1014bb:	8b 55 d4             	mov    -0x2c(%ebp),%edx
  1014be:	29 c2                	sub    %eax,%edx
  1014c0:	8b 45 cc             	mov    -0x34(%ebp),%eax
  1014c3:	89 50 08             	mov    %edx,0x8(%eax)
  1014c6:	8b 45 cc             	mov    -0x34(%ebp),%eax
  1014c9:	c6 40 04 01          	movb   $0x1,0x4(%eax)
  1014cd:	8b 45 cc             	mov    -0x34(%ebp),%eax
  1014d0:	8b 40 08             	mov    0x8(%eax),%eax
  1014d3:	03 45 d8             	add    -0x28(%ebp),%eax
  1014d6:	83 e8 08             	sub    $0x8,%eax
  1014d9:	89 45 c8             	mov    %eax,-0x38(%ebp)
  1014dc:	8b 45 c8             	mov    -0x38(%ebp),%eax
  1014df:	c7 00 be ba fe ca    	movl   $0xcafebabe,(%eax)
  1014e5:	8b 45 c8             	mov    -0x38(%ebp),%eax
  1014e8:	8b 55 cc             	mov    -0x34(%ebp),%edx
  1014eb:	89 50 04             	mov    %edx,0x4(%eax)
  1014ee:	8b 45 10             	mov    0x10(%ebp),%eax
  1014f1:	89 44 24 04          	mov    %eax,0x4(%esp)
  1014f5:	8b 45 cc             	mov    -0x34(%ebp),%eax
  1014f8:	89 04 24             	mov    %eax,(%esp)
  1014fb:	e8 cc 07 00 00       	call   101ccc <insert_ordered_array>
  101500:	eb 52                	jmp    101554 <alloc+0x18c>
  101502:	8b 45 10             	mov    0x10(%ebp),%eax
  101505:	89 44 24 04          	mov    %eax,0x4(%esp)
  101509:	8b 45 ec             	mov    -0x14(%ebp),%eax
  10150c:	89 04 24             	mov    %eax,(%esp)
  10150f:	e8 c0 08 00 00       	call   101dd4 <lookup_ordered_array>
  101514:	89 45 c4             	mov    %eax,-0x3c(%ebp)
  101517:	8b 45 c4             	mov    -0x3c(%ebp),%eax
  10151a:	8b 40 08             	mov    0x8(%eax),%eax
  10151d:	8b 55 dc             	mov    -0x24(%ebp),%edx
  101520:	8b 4d d4             	mov    -0x2c(%ebp),%ecx
  101523:	89 cb                	mov    %ecx,%ebx
  101525:	29 d3                	sub    %edx,%ebx
  101527:	89 da                	mov    %ebx,%edx
  101529:	01 c2                	add    %eax,%edx
  10152b:	8b 45 c4             	mov    -0x3c(%ebp),%eax
  10152e:	89 50 08             	mov    %edx,0x8(%eax)
  101531:	8b 45 c4             	mov    -0x3c(%ebp),%eax
  101534:	8b 50 08             	mov    0x8(%eax),%edx
  101537:	8b 45 c4             	mov    -0x3c(%ebp),%eax
  10153a:	01 d0                	add    %edx,%eax
  10153c:	83 e8 08             	sub    $0x8,%eax
  10153f:	89 45 c0             	mov    %eax,-0x40(%ebp)
  101542:	8b 45 c0             	mov    -0x40(%ebp),%eax
  101545:	8b 55 c4             	mov    -0x3c(%ebp),%edx
  101548:	89 50 04             	mov    %edx,0x4(%eax)
  10154b:	8b 45 c0             	mov    -0x40(%ebp),%eax
  10154e:	c7 00 be ba fe ca    	movl   $0xcafebabe,(%eax)
  101554:	0f b6 45 94          	movzbl -0x6c(%ebp),%eax
  101558:	8b 55 10             	mov    0x10(%ebp),%edx
  10155b:	89 54 24 08          	mov    %edx,0x8(%esp)
  10155f:	89 44 24 04          	mov    %eax,0x4(%esp)
  101563:	8b 45 08             	mov    0x8(%ebp),%eax
  101566:	89 04 24             	mov    %eax,(%esp)
  101569:	e8 5a fe ff ff       	call   1013c8 <alloc>
  10156e:	e9 95 01 00 00       	jmp    101708 <alloc+0x340>
  101573:	8b 55 10             	mov    0x10(%ebp),%edx
  101576:	8b 45 f0             	mov    -0x10(%ebp),%eax
  101579:	89 54 24 04          	mov    %edx,0x4(%esp)
  10157d:	89 04 24             	mov    %eax,(%esp)
  101580:	e8 4f 08 00 00       	call   101dd4 <lookup_ordered_array>
  101585:	89 45 bc             	mov    %eax,-0x44(%ebp)
  101588:	8b 45 bc             	mov    -0x44(%ebp),%eax
  10158b:	89 45 e4             	mov    %eax,-0x1c(%ebp)
  10158e:	8b 45 bc             	mov    -0x44(%ebp),%eax
  101591:	8b 40 08             	mov    0x8(%eax),%eax
  101594:	89 45 e0             	mov    %eax,-0x20(%ebp)
  101597:	8b 45 f4             	mov    -0xc(%ebp),%eax
  10159a:	8b 55 e0             	mov    -0x20(%ebp),%edx
  10159d:	89 d1                	mov    %edx,%ecx
  10159f:	29 c1                	sub    %eax,%ecx
  1015a1:	89 c8                	mov    %ecx,%eax
  1015a3:	83 f8 13             	cmp    $0x13,%eax
  1015a6:	77 15                	ja     1015bd <alloc+0x1f5>
  1015a8:	8b 45 f4             	mov    -0xc(%ebp),%eax
  1015ab:	8b 55 e0             	mov    -0x20(%ebp),%edx
  1015ae:	89 d3                	mov    %edx,%ebx
  1015b0:	29 c3                	sub    %eax,%ebx
  1015b2:	89 d8                	mov    %ebx,%eax
  1015b4:	01 45 08             	add    %eax,0x8(%ebp)
  1015b7:	8b 45 e0             	mov    -0x20(%ebp),%eax
  1015ba:	89 45 f4             	mov    %eax,-0xc(%ebp)
  1015bd:	80 7d 94 00          	cmpb   $0x0,-0x6c(%ebp)
  1015c1:	74 7a                	je     10163d <alloc+0x275>
  1015c3:	8b 45 e4             	mov    -0x1c(%ebp),%eax
  1015c6:	25 00 f0 ff ff       	and    $0xfffff000,%eax
  1015cb:	85 c0                	test   %eax,%eax
  1015cd:	74 6e                	je     10163d <alloc+0x275>
  1015cf:	8b 45 e4             	mov    -0x1c(%ebp),%eax
  1015d2:	25 00 f0 ff ff       	and    $0xfffff000,%eax
  1015d7:	05 f4 0f 00 00       	add    $0xff4,%eax
  1015dc:	89 45 b8             	mov    %eax,-0x48(%ebp)
  1015df:	8b 45 e4             	mov    -0x1c(%ebp),%eax
  1015e2:	89 45 b4             	mov    %eax,-0x4c(%ebp)
  1015e5:	8b 45 e4             	mov    -0x1c(%ebp),%eax
  1015e8:	89 c2                	mov    %eax,%edx
  1015ea:	81 e2 ff 0f 00 00    	and    $0xfff,%edx
  1015f0:	b8 f4 0f 00 00       	mov    $0xff4,%eax
  1015f5:	89 c1                	mov    %eax,%ecx
  1015f7:	29 d1                	sub    %edx,%ecx
  1015f9:	89 ca                	mov    %ecx,%edx
  1015fb:	8b 45 b4             	mov    -0x4c(%ebp),%eax
  1015fe:	89 50 08             	mov    %edx,0x8(%eax)
  101601:	8b 45 b4             	mov    -0x4c(%ebp),%eax
  101604:	c7 00 be ba fe ca    	movl   $0xcafebabe,(%eax)
  10160a:	8b 45 b4             	mov    -0x4c(%ebp),%eax
  10160d:	c6 40 04 01          	movb   $0x1,0x4(%eax)
  101611:	8b 45 b8             	mov    -0x48(%ebp),%eax
  101614:	83 e8 08             	sub    $0x8,%eax
  101617:	89 45 b0             	mov    %eax,-0x50(%ebp)
  10161a:	8b 45 b0             	mov    -0x50(%ebp),%eax
  10161d:	c7 00 be ba fe ca    	movl   $0xcafebabe,(%eax)
  101623:	8b 45 b0             	mov    -0x50(%ebp),%eax
  101626:	8b 55 b4             	mov    -0x4c(%ebp),%edx
  101629:	89 50 04             	mov    %edx,0x4(%eax)
  10162c:	8b 45 b8             	mov    -0x48(%ebp),%eax
  10162f:	89 45 e4             	mov    %eax,-0x1c(%ebp)
  101632:	8b 45 b4             	mov    -0x4c(%ebp),%eax
  101635:	8b 40 08             	mov    0x8(%eax),%eax
  101638:	29 45 e0             	sub    %eax,-0x20(%ebp)
  10163b:	eb 12                	jmp    10164f <alloc+0x287>
  10163d:	8b 55 10             	mov    0x10(%ebp),%edx
  101640:	8b 45 f0             	mov    -0x10(%ebp),%eax
  101643:	89 54 24 04          	mov    %edx,0x4(%esp)
  101647:	89 04 24             	mov    %eax,(%esp)
  10164a:	e8 c3 07 00 00       	call   101e12 <remove_ordered_array>
  10164f:	8b 45 e4             	mov    -0x1c(%ebp),%eax
  101652:	89 45 ac             	mov    %eax,-0x54(%ebp)
  101655:	8b 45 ac             	mov    -0x54(%ebp),%eax
  101658:	c7 00 be ba fe ca    	movl   $0xcafebabe,(%eax)
  10165e:	8b 45 ac             	mov    -0x54(%ebp),%eax
  101661:	c6 40 04 00          	movb   $0x0,0x4(%eax)
  101665:	8b 45 ac             	mov    -0x54(%ebp),%eax
  101668:	8b 55 f4             	mov    -0xc(%ebp),%edx
  10166b:	89 50 08             	mov    %edx,0x8(%eax)
  10166e:	8b 45 08             	mov    0x8(%ebp),%eax
  101671:	8b 55 e4             	mov    -0x1c(%ebp),%edx
  101674:	01 d0                	add    %edx,%eax
  101676:	83 c0 0c             	add    $0xc,%eax
  101679:	89 45 a8             	mov    %eax,-0x58(%ebp)
  10167c:	8b 45 a8             	mov    -0x58(%ebp),%eax
  10167f:	c7 00 be ba fe ca    	movl   $0xcafebabe,(%eax)
  101685:	8b 45 a8             	mov    -0x58(%ebp),%eax
  101688:	8b 55 ac             	mov    -0x54(%ebp),%edx
  10168b:	89 50 04             	mov    %edx,0x4(%eax)
  10168e:	8b 45 e0             	mov    -0x20(%ebp),%eax
  101691:	3b 45 f4             	cmp    -0xc(%ebp),%eax
  101694:	74 6c                	je     101702 <alloc+0x33a>
  101696:	8b 45 08             	mov    0x8(%ebp),%eax
  101699:	8b 55 e4             	mov    -0x1c(%ebp),%edx
  10169c:	01 d0                	add    %edx,%eax
  10169e:	83 c0 14             	add    $0x14,%eax
  1016a1:	89 45 a4             	mov    %eax,-0x5c(%ebp)
  1016a4:	8b 45 a4             	mov    -0x5c(%ebp),%eax
  1016a7:	c7 00 be ba fe ca    	movl   $0xcafebabe,(%eax)
  1016ad:	8b 45 a4             	mov    -0x5c(%ebp),%eax
  1016b0:	c6 40 04 01          	movb   $0x1,0x4(%eax)
  1016b4:	8b 45 f4             	mov    -0xc(%ebp),%eax
  1016b7:	8b 55 e0             	mov    -0x20(%ebp),%edx
  1016ba:	29 c2                	sub    %eax,%edx
  1016bc:	8b 45 a4             	mov    -0x5c(%ebp),%eax
  1016bf:	89 50 08             	mov    %edx,0x8(%eax)
  1016c2:	8b 45 a4             	mov    -0x5c(%ebp),%eax
  1016c5:	03 45 e0             	add    -0x20(%ebp),%eax
  1016c8:	2b 45 f4             	sub    -0xc(%ebp),%eax
  1016cb:	83 e8 08             	sub    $0x8,%eax
  1016ce:	89 45 a0             	mov    %eax,-0x60(%ebp)
  1016d1:	8b 55 a0             	mov    -0x60(%ebp),%edx
  1016d4:	8b 45 10             	mov    0x10(%ebp),%eax
  1016d7:	8b 40 14             	mov    0x14(%eax),%eax
  1016da:	39 c2                	cmp    %eax,%edx
  1016dc:	73 12                	jae    1016f0 <alloc+0x328>
  1016de:	8b 45 a0             	mov    -0x60(%ebp),%eax
  1016e1:	c7 00 be ba fe ca    	movl   $0xcafebabe,(%eax)
  1016e7:	8b 45 a0             	mov    -0x60(%ebp),%eax
  1016ea:	8b 55 a4             	mov    -0x5c(%ebp),%edx
  1016ed:	89 50 04             	mov    %edx,0x4(%eax)
  1016f0:	8b 45 10             	mov    0x10(%ebp),%eax
  1016f3:	89 44 24 04          	mov    %eax,0x4(%esp)
  1016f7:	8b 45 a4             	mov    -0x5c(%ebp),%eax
  1016fa:	89 04 24             	mov    %eax,(%esp)
  1016fd:	e8 ca 05 00 00       	call   101ccc <insert_ordered_array>
  101702:	8b 45 ac             	mov    -0x54(%ebp),%eax
  101705:	83 c0 0c             	add    $0xc,%eax
  101708:	81 c4 84 00 00 00    	add    $0x84,%esp
  10170e:	5b                   	pop    %ebx
  10170f:	5d                   	pop    %ebp
  101710:	c3                   	ret    

00101711 <free>:
  101711:	55                   	push   %ebp
  101712:	89 e5                	mov    %esp,%ebp
  101714:	53                   	push   %ebx
  101715:	83 ec 44             	sub    $0x44,%esp
  101718:	83 7d 08 00          	cmpl   $0x0,0x8(%ebp)
  10171c:	0f 84 86 02 00 00    	je     1019a8 <free+0x297>
  101722:	8b 45 08             	mov    0x8(%ebp),%eax
  101725:	83 e8 0c             	sub    $0xc,%eax
  101728:	89 45 f4             	mov    %eax,-0xc(%ebp)
  10172b:	8b 45 f4             	mov    -0xc(%ebp),%eax
  10172e:	8b 50 08             	mov    0x8(%eax),%edx
  101731:	8b 45 f4             	mov    -0xc(%ebp),%eax
  101734:	01 d0                	add    %edx,%eax
  101736:	83 e8 08             	sub    $0x8,%eax
  101739:	89 45 f0             	mov    %eax,-0x10(%ebp)
  10173c:	8b 45 f4             	mov    -0xc(%ebp),%eax
  10173f:	8b 00                	mov    (%eax),%eax
  101741:	3d be ba fe ca       	cmp    $0xcafebabe,%eax
  101746:	74 1c                	je     101764 <free+0x53>
  101748:	c7 44 24 08 98 5c 10 	movl   $0x105c98,0x8(%esp)
  10174f:	00 
  101750:	c7 44 24 04 2b 01 00 	movl   $0x12b,0x4(%esp)
  101757:	00 
  101758:	c7 04 24 fb 5b 10 00 	movl   $0x105bfb,(%esp)
  10175f:	e8 d4 0c 00 00       	call   102438 <panic_assert>
  101764:	8b 45 f0             	mov    -0x10(%ebp),%eax
  101767:	8b 00                	mov    (%eax),%eax
  101769:	3d be ba fe ca       	cmp    $0xcafebabe,%eax
  10176e:	74 1c                	je     10178c <free+0x7b>
  101770:	c7 44 24 08 b4 5c 10 	movl   $0x105cb4,0x8(%esp)
  101777:	00 
  101778:	c7 44 24 04 2c 01 00 	movl   $0x12c,0x4(%esp)
  10177f:	00 
  101780:	c7 04 24 fb 5b 10 00 	movl   $0x105bfb,(%esp)
  101787:	e8 ac 0c 00 00       	call   102438 <panic_assert>
  10178c:	8b 45 f4             	mov    -0xc(%ebp),%eax
  10178f:	c6 40 04 01          	movb   $0x1,0x4(%eax)
  101793:	c6 45 ef 01          	movb   $0x1,-0x11(%ebp)
  101797:	8b 45 f4             	mov    -0xc(%ebp),%eax
  10179a:	83 e8 08             	sub    $0x8,%eax
  10179d:	89 45 e0             	mov    %eax,-0x20(%ebp)
  1017a0:	8b 45 e0             	mov    -0x20(%ebp),%eax
  1017a3:	8b 00                	mov    (%eax),%eax
  1017a5:	3d be ba fe ca       	cmp    $0xcafebabe,%eax
  1017aa:	75 3e                	jne    1017ea <free+0xd9>
  1017ac:	8b 45 e0             	mov    -0x20(%ebp),%eax
  1017af:	8b 40 04             	mov    0x4(%eax),%eax
  1017b2:	0f b6 40 04          	movzbl 0x4(%eax),%eax
  1017b6:	3c 01                	cmp    $0x1,%al
  1017b8:	75 30                	jne    1017ea <free+0xd9>
  1017ba:	8b 45 f4             	mov    -0xc(%ebp),%eax
  1017bd:	8b 40 08             	mov    0x8(%eax),%eax
  1017c0:	89 45 dc             	mov    %eax,-0x24(%ebp)
  1017c3:	8b 45 e0             	mov    -0x20(%ebp),%eax
  1017c6:	8b 40 04             	mov    0x4(%eax),%eax
  1017c9:	89 45 f4             	mov    %eax,-0xc(%ebp)
  1017cc:	8b 45 f0             	mov    -0x10(%ebp),%eax
  1017cf:	8b 55 f4             	mov    -0xc(%ebp),%edx
  1017d2:	89 50 04             	mov    %edx,0x4(%eax)
  1017d5:	8b 45 f4             	mov    -0xc(%ebp),%eax
  1017d8:	8b 40 08             	mov    0x8(%eax),%eax
  1017db:	89 c2                	mov    %eax,%edx
  1017dd:	03 55 dc             	add    -0x24(%ebp),%edx
  1017e0:	8b 45 f4             	mov    -0xc(%ebp),%eax
  1017e3:	89 50 08             	mov    %edx,0x8(%eax)
  1017e6:	c6 45 ef 00          	movb   $0x0,-0x11(%ebp)
  1017ea:	8b 45 f0             	mov    -0x10(%ebp),%eax
  1017ed:	83 c0 08             	add    $0x8,%eax
  1017f0:	89 45 d8             	mov    %eax,-0x28(%ebp)
  1017f3:	8b 45 d8             	mov    -0x28(%ebp),%eax
  1017f6:	8b 00                	mov    (%eax),%eax
  1017f8:	3d be ba fe ca       	cmp    $0xcafebabe,%eax
  1017fd:	0f 85 a2 00 00 00    	jne    1018a5 <free+0x194>
  101803:	8b 45 d8             	mov    -0x28(%ebp),%eax
  101806:	0f b6 40 04          	movzbl 0x4(%eax),%eax
  10180a:	84 c0                	test   %al,%al
  10180c:	0f 84 93 00 00 00    	je     1018a5 <free+0x194>
  101812:	8b 45 f4             	mov    -0xc(%ebp),%eax
  101815:	8b 50 08             	mov    0x8(%eax),%edx
  101818:	8b 45 d8             	mov    -0x28(%ebp),%eax
  10181b:	8b 40 08             	mov    0x8(%eax),%eax
  10181e:	01 c2                	add    %eax,%edx
  101820:	8b 45 f4             	mov    -0xc(%ebp),%eax
  101823:	89 50 08             	mov    %edx,0x8(%eax)
  101826:	8b 45 d8             	mov    -0x28(%ebp),%eax
  101829:	8b 50 08             	mov    0x8(%eax),%edx
  10182c:	8b 45 d8             	mov    -0x28(%ebp),%eax
  10182f:	01 d0                	add    %edx,%eax
  101831:	83 e8 08             	sub    $0x8,%eax
  101834:	89 45 e0             	mov    %eax,-0x20(%ebp)
  101837:	8b 45 e0             	mov    -0x20(%ebp),%eax
  10183a:	89 45 f0             	mov    %eax,-0x10(%ebp)
  10183d:	c7 45 e8 00 00 00 00 	movl   $0x0,-0x18(%ebp)
  101844:	eb 04                	jmp    10184a <free+0x139>
  101846:	83 45 e8 01          	addl   $0x1,-0x18(%ebp)
  10184a:	8b 45 0c             	mov    0xc(%ebp),%eax
  10184d:	8b 40 04             	mov    0x4(%eax),%eax
  101850:	3b 45 e8             	cmp    -0x18(%ebp),%eax
  101853:	76 17                	jbe    10186c <free+0x15b>
  101855:	8b 45 0c             	mov    0xc(%ebp),%eax
  101858:	89 44 24 04          	mov    %eax,0x4(%esp)
  10185c:	8b 45 e8             	mov    -0x18(%ebp),%eax
  10185f:	89 04 24             	mov    %eax,(%esp)
  101862:	e8 6d 05 00 00       	call   101dd4 <lookup_ordered_array>
  101867:	3b 45 d8             	cmp    -0x28(%ebp),%eax
  10186a:	75 da                	jne    101846 <free+0x135>
  10186c:	8b 45 0c             	mov    0xc(%ebp),%eax
  10186f:	8b 40 04             	mov    0x4(%eax),%eax
  101872:	3b 45 e8             	cmp    -0x18(%ebp),%eax
  101875:	77 1c                	ja     101893 <free+0x182>
  101877:	c7 44 24 08 d0 5c 10 	movl   $0x105cd0,0x8(%esp)
  10187e:	00 
  10187f:	c7 44 24 04 4f 01 00 	movl   $0x14f,0x4(%esp)
  101886:	00 
  101887:	c7 04 24 fb 5b 10 00 	movl   $0x105bfb,(%esp)
  10188e:	e8 a5 0b 00 00       	call   102438 <panic_assert>
  101893:	8b 45 0c             	mov    0xc(%ebp),%eax
  101896:	89 44 24 04          	mov    %eax,0x4(%esp)
  10189a:	8b 45 e8             	mov    -0x18(%ebp),%eax
  10189d:	89 04 24             	mov    %eax,(%esp)
  1018a0:	e8 6d 05 00 00       	call   101e12 <remove_ordered_array>
  1018a5:	8b 45 f0             	mov    -0x10(%ebp),%eax
  1018a8:	8d 50 08             	lea    0x8(%eax),%edx
  1018ab:	8b 45 0c             	mov    0xc(%ebp),%eax
  1018ae:	8b 40 14             	mov    0x14(%eax),%eax
  1018b1:	39 c2                	cmp    %eax,%edx
  1018b3:	0f 85 d5 00 00 00    	jne    10198e <free+0x27d>
  1018b9:	8b 45 0c             	mov    0xc(%ebp),%eax
  1018bc:	8b 50 14             	mov    0x14(%eax),%edx
  1018bf:	8b 45 0c             	mov    0xc(%ebp),%eax
  1018c2:	8b 40 10             	mov    0x10(%eax),%eax
  1018c5:	89 d1                	mov    %edx,%ecx
  1018c7:	29 c1                	sub    %eax,%ecx
  1018c9:	89 c8                	mov    %ecx,%eax
  1018cb:	89 45 d4             	mov    %eax,-0x2c(%ebp)
  1018ce:	8b 55 f4             	mov    -0xc(%ebp),%edx
  1018d1:	8b 45 0c             	mov    0xc(%ebp),%eax
  1018d4:	8b 40 10             	mov    0x10(%eax),%eax
  1018d7:	29 c2                	sub    %eax,%edx
  1018d9:	8b 45 0c             	mov    0xc(%ebp),%eax
  1018dc:	89 44 24 04          	mov    %eax,0x4(%esp)
  1018e0:	89 14 24             	mov    %edx,(%esp)
  1018e3:	e8 0c f8 ff ff       	call   1010f4 <contract>
  1018e8:	89 45 d0             	mov    %eax,-0x30(%ebp)
  1018eb:	8b 45 f4             	mov    -0xc(%ebp),%eax
  1018ee:	8b 40 08             	mov    0x8(%eax),%eax
  1018f1:	8b 55 d4             	mov    -0x2c(%ebp),%edx
  1018f4:	8b 4d d0             	mov    -0x30(%ebp),%ecx
  1018f7:	89 cb                	mov    %ecx,%ebx
  1018f9:	29 d3                	sub    %edx,%ebx
  1018fb:	89 da                	mov    %ebx,%edx
  1018fd:	01 d0                	add    %edx,%eax
  1018ff:	85 c0                	test   %eax,%eax
  101901:	74 3f                	je     101942 <free+0x231>
  101903:	8b 45 f4             	mov    -0xc(%ebp),%eax
  101906:	8b 40 08             	mov    0x8(%eax),%eax
  101909:	8b 55 d4             	mov    -0x2c(%ebp),%edx
  10190c:	8b 4d d0             	mov    -0x30(%ebp),%ecx
  10190f:	89 cb                	mov    %ecx,%ebx
  101911:	29 d3                	sub    %edx,%ebx
  101913:	89 da                	mov    %ebx,%edx
  101915:	01 c2                	add    %eax,%edx
  101917:	8b 45 f4             	mov    -0xc(%ebp),%eax
  10191a:	89 50 08             	mov    %edx,0x8(%eax)
  10191d:	8b 45 f4             	mov    -0xc(%ebp),%eax
  101920:	8b 50 08             	mov    0x8(%eax),%edx
  101923:	8b 45 f4             	mov    -0xc(%ebp),%eax
  101926:	01 d0                	add    %edx,%eax
  101928:	83 e8 08             	sub    $0x8,%eax
  10192b:	89 45 f0             	mov    %eax,-0x10(%ebp)
  10192e:	8b 45 f0             	mov    -0x10(%ebp),%eax
  101931:	c7 00 be ba fe ca    	movl   $0xcafebabe,(%eax)
  101937:	8b 45 f0             	mov    -0x10(%ebp),%eax
  10193a:	8b 55 f4             	mov    -0xc(%ebp),%edx
  10193d:	89 50 04             	mov    %edx,0x4(%eax)
  101940:	eb 4c                	jmp    10198e <free+0x27d>
  101942:	c7 45 e4 00 00 00 00 	movl   $0x0,-0x1c(%ebp)
  101949:	eb 04                	jmp    10194f <free+0x23e>
  10194b:	83 45 e4 01          	addl   $0x1,-0x1c(%ebp)
  10194f:	8b 45 0c             	mov    0xc(%ebp),%eax
  101952:	8b 40 04             	mov    0x4(%eax),%eax
  101955:	3b 45 e4             	cmp    -0x1c(%ebp),%eax
  101958:	76 17                	jbe    101971 <free+0x260>
  10195a:	8b 45 0c             	mov    0xc(%ebp),%eax
  10195d:	89 44 24 04          	mov    %eax,0x4(%esp)
  101961:	8b 45 e4             	mov    -0x1c(%ebp),%eax
  101964:	89 04 24             	mov    %eax,(%esp)
  101967:	e8 68 04 00 00       	call   101dd4 <lookup_ordered_array>
  10196c:	3b 45 d8             	cmp    -0x28(%ebp),%eax
  10196f:	75 da                	jne    10194b <free+0x23a>
  101971:	8b 45 0c             	mov    0xc(%ebp),%eax
  101974:	8b 40 04             	mov    0x4(%eax),%eax
  101977:	3b 45 e4             	cmp    -0x1c(%ebp),%eax
  10197a:	76 12                	jbe    10198e <free+0x27d>
  10197c:	8b 45 0c             	mov    0xc(%ebp),%eax
  10197f:	89 44 24 04          	mov    %eax,0x4(%esp)
  101983:	8b 45 e4             	mov    -0x1c(%ebp),%eax
  101986:	89 04 24             	mov    %eax,(%esp)
  101989:	e8 84 04 00 00       	call   101e12 <remove_ordered_array>
  10198e:	80 7d ef 01          	cmpb   $0x1,-0x11(%ebp)
  101992:	75 15                	jne    1019a9 <free+0x298>
  101994:	8b 45 0c             	mov    0xc(%ebp),%eax
  101997:	89 44 24 04          	mov    %eax,0x4(%esp)
  10199b:	8b 45 f4             	mov    -0xc(%ebp),%eax
  10199e:	89 04 24             	mov    %eax,(%esp)
  1019a1:	e8 26 03 00 00       	call   101ccc <insert_ordered_array>
  1019a6:	eb 01                	jmp    1019a9 <free+0x298>
  1019a8:	90                   	nop
  1019a9:	83 c4 44             	add    $0x44,%esp
  1019ac:	5b                   	pop    %ebx
  1019ad:	5d                   	pop    %ebp
  1019ae:	c3                   	ret    
	...

001019b0 <kernel_main>:
  1019b0:	55                   	push   %ebp
  1019b1:	89 e5                	mov    %esp,%ebp
  1019b3:	83 ec 28             	sub    $0x28,%esp
  1019b6:	e8 3d 10 00 00       	call   1029f8 <system_init>
  1019bb:	e8 28 07 00 00       	call   1020e8 <paging_init>
  1019c0:	c7 04 24 01 00 00 00 	movl   $0x1,(%esp)
  1019c7:	e8 e4 17 00 00       	call   1031b0 <terminal_initialize>
  1019cc:	c7 04 24 ec 5c 10 00 	movl   $0x105cec,(%esp)
  1019d3:	e8 a9 19 00 00       	call   103381 <terminal_write_string>
  1019d8:	e8 f3 16 00 00       	call   1030d0 <sys_get_cpu_info>
  1019dd:	89 45 f4             	mov    %eax,-0xc(%ebp)
  1019e0:	8b 45 f4             	mov    -0xc(%ebp),%eax
  1019e3:	8b 40 38             	mov    0x38(%eax),%eax
  1019e6:	85 c0                	test   %eax,%eax
  1019e8:	75 0e                	jne    1019f8 <kernel_main+0x48>
  1019ea:	c7 04 24 03 5d 10 00 	movl   $0x105d03,(%esp)
  1019f1:	e8 8b 19 00 00       	call   103381 <terminal_write_string>
  1019f6:	eb 25                	jmp    101a1d <kernel_main+0x6d>
  1019f8:	8b 45 f4             	mov    -0xc(%ebp),%eax
  1019fb:	8b 40 38             	mov    0x38(%eax),%eax
  1019fe:	83 f8 01             	cmp    $0x1,%eax
  101a01:	75 0e                	jne    101a11 <kernel_main+0x61>
  101a03:	c7 04 24 17 5d 10 00 	movl   $0x105d17,(%esp)
  101a0a:	e8 72 19 00 00       	call   103381 <terminal_write_string>
  101a0f:	eb 0c                	jmp    101a1d <kernel_main+0x6d>
  101a11:	c7 04 24 29 5d 10 00 	movl   $0x105d29,(%esp)
  101a18:	e8 64 19 00 00       	call   103381 <terminal_write_string>
  101a1d:	c7 04 24 3f 5d 10 00 	movl   $0x105d3f,(%esp)
  101a24:	e8 58 19 00 00       	call   103381 <terminal_write_string>
  101a29:	8b 45 f4             	mov    -0xc(%ebp),%eax
  101a2c:	8b 40 08             	mov    0x8(%eax),%eax
  101a2f:	89 04 24             	mov    %eax,(%esp)
  101a32:	e8 26 1a 00 00       	call   10345d <terminal_write_dword>
  101a37:	c7 04 24 48 5d 10 00 	movl   $0x105d48,(%esp)
  101a3e:	e8 3e 19 00 00       	call   103381 <terminal_write_string>
  101a43:	8b 45 f4             	mov    -0xc(%ebp),%eax
  101a46:	8b 40 10             	mov    0x10(%eax),%eax
  101a49:	89 04 24             	mov    %eax,(%esp)
  101a4c:	e8 0c 1a 00 00       	call   10345d <terminal_write_dword>
  101a51:	c7 04 24 51 5d 10 00 	movl   $0x105d51,(%esp)
  101a58:	e8 24 19 00 00       	call   103381 <terminal_write_string>
  101a5d:	8b 45 f4             	mov    -0xc(%ebp),%eax
  101a60:	8b 40 14             	mov    0x14(%eax),%eax
  101a63:	89 04 24             	mov    %eax,(%esp)
  101a66:	e8 f2 19 00 00       	call   10345d <terminal_write_dword>
  101a6b:	c7 04 24 5d 5d 10 00 	movl   $0x105d5d,(%esp)
  101a72:	e8 0a 19 00 00       	call   103381 <terminal_write_string>
  101a77:	8b 45 f4             	mov    -0xc(%ebp),%eax
  101a7a:	8b 40 0c             	mov    0xc(%eax),%eax
  101a7d:	89 04 24             	mov    %eax,(%esp)
  101a80:	e8 d8 19 00 00       	call   10345d <terminal_write_dword>
  101a85:	c7 04 24 6c 5d 10 00 	movl   $0x105d6c,(%esp)
  101a8c:	e8 f0 18 00 00       	call   103381 <terminal_write_string>
  101a91:	8b 45 f4             	mov    -0xc(%ebp),%eax
  101a94:	8b 40 04             	mov    0x4(%eax),%eax
  101a97:	89 04 24             	mov    %eax,(%esp)
  101a9a:	e8 e2 18 00 00       	call   103381 <terminal_write_string>
  101a9f:	c7 04 24 7d 5d 10 00 	movl   $0x105d7d,(%esp)
  101aa6:	e8 d6 18 00 00       	call   103381 <terminal_write_string>
  101aab:	8b 45 f4             	mov    -0xc(%ebp),%eax
  101aae:	8b 40 40             	mov    0x40(%eax),%eax
  101ab1:	85 c0                	test   %eax,%eax
  101ab3:	74 26                	je     101adb <kernel_main+0x12b>
  101ab5:	c7 04 24 80 5d 10 00 	movl   $0x105d80,(%esp)
  101abc:	e8 c0 18 00 00       	call   103381 <terminal_write_string>
  101ac1:	8b 45 f4             	mov    -0xc(%ebp),%eax
  101ac4:	8b 40 40             	mov    0x40(%eax),%eax
  101ac7:	89 04 24             	mov    %eax,(%esp)
  101aca:	e8 b2 18 00 00       	call   103381 <terminal_write_string>
  101acf:	c7 04 24 8d 5d 10 00 	movl   $0x105d8d,(%esp)
  101ad6:	e8 a6 18 00 00       	call   103381 <terminal_write_string>
  101adb:	8b 45 f4             	mov    -0xc(%ebp),%eax
  101ade:	8b 40 44             	mov    0x44(%eax),%eax
  101ae1:	85 c0                	test   %eax,%eax
  101ae3:	74 26                	je     101b0b <kernel_main+0x15b>
  101ae5:	c7 04 24 8f 5d 10 00 	movl   $0x105d8f,(%esp)
  101aec:	e8 90 18 00 00       	call   103381 <terminal_write_string>
  101af1:	8b 45 f4             	mov    -0xc(%ebp),%eax
  101af4:	8b 40 44             	mov    0x44(%eax),%eax
  101af7:	89 04 24             	mov    %eax,(%esp)
  101afa:	e8 82 18 00 00       	call   103381 <terminal_write_string>
  101aff:	c7 04 24 8d 5d 10 00 	movl   $0x105d8d,(%esp)
  101b06:	e8 76 18 00 00       	call   103381 <terminal_write_string>
  101b0b:	8b 45 f4             	mov    -0xc(%ebp),%eax
  101b0e:	8b 40 48             	mov    0x48(%eax),%eax
  101b11:	85 c0                	test   %eax,%eax
  101b13:	74 26                	je     101b3b <kernel_main+0x18b>
  101b15:	c7 04 24 9c 5d 10 00 	movl   $0x105d9c,(%esp)
  101b1c:	e8 60 18 00 00       	call   103381 <terminal_write_string>
  101b21:	8b 45 f4             	mov    -0xc(%ebp),%eax
  101b24:	8b 40 48             	mov    0x48(%eax),%eax
  101b27:	89 04 24             	mov    %eax,(%esp)
  101b2a:	e8 52 18 00 00       	call   103381 <terminal_write_string>
  101b2f:	c7 04 24 8d 5d 10 00 	movl   $0x105d8d,(%esp)
  101b36:	e8 46 18 00 00       	call   103381 <terminal_write_string>
  101b3b:	8b 45 f4             	mov    -0xc(%ebp),%eax
  101b3e:	8b 40 4c             	mov    0x4c(%eax),%eax
  101b41:	85 c0                	test   %eax,%eax
  101b43:	74 26                	je     101b6b <kernel_main+0x1bb>
  101b45:	c7 04 24 a9 5d 10 00 	movl   $0x105da9,(%esp)
  101b4c:	e8 30 18 00 00       	call   103381 <terminal_write_string>
  101b51:	8b 45 f4             	mov    -0xc(%ebp),%eax
  101b54:	8b 40 4c             	mov    0x4c(%eax),%eax
  101b57:	89 04 24             	mov    %eax,(%esp)
  101b5a:	e8 22 18 00 00       	call   103381 <terminal_write_string>
  101b5f:	c7 04 24 8d 5d 10 00 	movl   $0x105d8d,(%esp)
  101b66:	e8 16 18 00 00       	call   103381 <terminal_write_string>
  101b6b:	e8 a4 e4 ff ff       	call   100014 <apic_supported>
  101b70:	85 c0                	test   %eax,%eax
  101b72:	0f 95 c0             	setne  %al
  101b75:	88 45 f3             	mov    %al,-0xd(%ebp)
  101b78:	80 7d f3 00          	cmpb   $0x0,-0xd(%ebp)
  101b7c:	74 0c                	je     101b8a <kernel_main+0x1da>
  101b7e:	c7 04 24 b6 5d 10 00 	movl   $0x105db6,(%esp)
  101b85:	e8 f7 17 00 00       	call   103381 <terminal_write_string>
  101b8a:	c7 45 ec 00 00 00 00 	movl   $0x0,-0x14(%ebp)
  101b91:	e8 67 15 00 00       	call   1030fd <sys_get_ticks>
  101b96:	89 45 ec             	mov    %eax,-0x14(%ebp)
  101b99:	c7 44 24 04 12 00 00 	movl   $0x12,0x4(%esp)
  101ba0:	00 
  101ba1:	c7 04 24 04 00 00 00 	movl   $0x4,(%esp)
  101ba8:	e8 32 1a 00 00       	call   1035df <terminal_setPos>
  101bad:	8b 45 ec             	mov    -0x14(%ebp),%eax
  101bb0:	89 04 24             	mov    %eax,(%esp)
  101bb3:	e8 a5 18 00 00       	call   10345d <terminal_write_dword>
  101bb8:	eb d7                	jmp    101b91 <kernel_main+0x1e1>

00101bba <kernel_init>:
  101bba:	55                   	push   %ebp
  101bbb:	89 e5                	mov    %esp,%ebp
  101bbd:	83 ec 18             	sub    $0x18,%esp
  101bc0:	ba 41 70 10 00       	mov    $0x107041,%edx
  101bc5:	b8 00 70 10 00       	mov    $0x107000,%eax
  101bca:	89 d1                	mov    %edx,%ecx
  101bcc:	29 c1                	sub    %eax,%ecx
  101bce:	89 c8                	mov    %ecx,%eax
  101bd0:	89 44 24 08          	mov    %eax,0x8(%esp)
  101bd4:	c7 44 24 04 00 00 00 	movl   $0x0,0x4(%esp)
  101bdb:	00 
  101bdc:	c7 04 24 00 70 10 00 	movl   $0x107000,(%esp)
  101be3:	e8 b4 0d 00 00       	call   10299c <memset>
  101be8:	c9                   	leave  
  101be9:	c3                   	ret    
	...

00101bec <standard_lessthan_predicate>:
  101bec:	55                   	push   %ebp
  101bed:	89 e5                	mov    %esp,%ebp
  101bef:	8b 45 08             	mov    0x8(%ebp),%eax
  101bf2:	3b 45 0c             	cmp    0xc(%ebp),%eax
  101bf5:	0f 92 c0             	setb   %al
  101bf8:	5d                   	pop    %ebp
  101bf9:	c3                   	ret    

00101bfa <create_ordered_array>:
  101bfa:	55                   	push   %ebp
  101bfb:	89 e5                	mov    %esp,%ebp
  101bfd:	83 ec 28             	sub    $0x28,%esp
  101c00:	8b 45 0c             	mov    0xc(%ebp),%eax
  101c03:	c1 e0 02             	shl    $0x2,%eax
  101c06:	89 04 24             	mov    %eax,(%esp)
  101c09:	e8 a5 f3 ff ff       	call   100fb3 <kmalloc>
  101c0e:	89 45 e8             	mov    %eax,-0x18(%ebp)
  101c11:	8b 45 0c             	mov    0xc(%ebp),%eax
  101c14:	8d 14 85 00 00 00 00 	lea    0x0(,%eax,4),%edx
  101c1b:	8b 45 e8             	mov    -0x18(%ebp),%eax
  101c1e:	89 54 24 08          	mov    %edx,0x8(%esp)
  101c22:	c7 44 24 04 00 00 00 	movl   $0x0,0x4(%esp)
  101c29:	00 
  101c2a:	89 04 24             	mov    %eax,(%esp)
  101c2d:	e8 6a 0d 00 00       	call   10299c <memset>
  101c32:	c7 45 ec 00 00 00 00 	movl   $0x0,-0x14(%ebp)
  101c39:	8b 45 0c             	mov    0xc(%ebp),%eax
  101c3c:	89 45 f0             	mov    %eax,-0x10(%ebp)
  101c3f:	8b 45 10             	mov    0x10(%ebp),%eax
  101c42:	89 45 f4             	mov    %eax,-0xc(%ebp)
  101c45:	8b 45 08             	mov    0x8(%ebp),%eax
  101c48:	8b 55 e8             	mov    -0x18(%ebp),%edx
  101c4b:	89 10                	mov    %edx,(%eax)
  101c4d:	8b 55 ec             	mov    -0x14(%ebp),%edx
  101c50:	89 50 04             	mov    %edx,0x4(%eax)
  101c53:	8b 55 f0             	mov    -0x10(%ebp),%edx
  101c56:	89 50 08             	mov    %edx,0x8(%eax)
  101c59:	8b 55 f4             	mov    -0xc(%ebp),%edx
  101c5c:	89 50 0c             	mov    %edx,0xc(%eax)
  101c5f:	8b 45 08             	mov    0x8(%ebp),%eax
  101c62:	c9                   	leave  
  101c63:	c2 04 00             	ret    $0x4

00101c66 <place_ordered_array>:
  101c66:	55                   	push   %ebp
  101c67:	89 e5                	mov    %esp,%ebp
  101c69:	83 ec 28             	sub    $0x28,%esp
  101c6c:	8b 45 0c             	mov    0xc(%ebp),%eax
  101c6f:	89 45 e8             	mov    %eax,-0x18(%ebp)
  101c72:	8b 45 10             	mov    0x10(%ebp),%eax
  101c75:	8d 14 85 00 00 00 00 	lea    0x0(,%eax,4),%edx
  101c7c:	8b 45 e8             	mov    -0x18(%ebp),%eax
  101c7f:	89 54 24 08          	mov    %edx,0x8(%esp)
  101c83:	c7 44 24 04 00 00 00 	movl   $0x0,0x4(%esp)
  101c8a:	00 
  101c8b:	89 04 24             	mov    %eax,(%esp)
  101c8e:	e8 09 0d 00 00       	call   10299c <memset>
  101c93:	c7 45 ec 00 00 00 00 	movl   $0x0,-0x14(%ebp)
  101c9a:	8b 45 10             	mov    0x10(%ebp),%eax
  101c9d:	89 45 f0             	mov    %eax,-0x10(%ebp)
  101ca0:	8b 45 14             	mov    0x14(%ebp),%eax
  101ca3:	89 45 f4             	mov    %eax,-0xc(%ebp)
  101ca6:	8b 45 08             	mov    0x8(%ebp),%eax
  101ca9:	8b 55 e8             	mov    -0x18(%ebp),%edx
  101cac:	89 10                	mov    %edx,(%eax)
  101cae:	8b 55 ec             	mov    -0x14(%ebp),%edx
  101cb1:	89 50 04             	mov    %edx,0x4(%eax)
  101cb4:	8b 55 f0             	mov    -0x10(%ebp),%edx
  101cb7:	89 50 08             	mov    %edx,0x8(%eax)
  101cba:	8b 55 f4             	mov    -0xc(%ebp),%edx
  101cbd:	89 50 0c             	mov    %edx,0xc(%eax)
  101cc0:	8b 45 08             	mov    0x8(%ebp),%eax
  101cc3:	c9                   	leave  
  101cc4:	c2 04 00             	ret    $0x4

00101cc7 <destroy_ordered_array>:
  101cc7:	55                   	push   %ebp
  101cc8:	89 e5                	mov    %esp,%ebp
  101cca:	5d                   	pop    %ebp
  101ccb:	c3                   	ret    

00101ccc <insert_ordered_array>:
  101ccc:	55                   	push   %ebp
  101ccd:	89 e5                	mov    %esp,%ebp
  101ccf:	83 ec 28             	sub    $0x28,%esp
  101cd2:	8b 45 0c             	mov    0xc(%ebp),%eax
  101cd5:	8b 40 0c             	mov    0xc(%eax),%eax
  101cd8:	85 c0                	test   %eax,%eax
  101cda:	75 1c                	jne    101cf8 <insert_ordered_array+0x2c>
  101cdc:	c7 44 24 08 ca 5d 10 	movl   $0x105dca,0x8(%esp)
  101ce3:	00 
  101ce4:	c7 44 24 04 27 00 00 	movl   $0x27,0x4(%esp)
  101ceb:	00 
  101cec:	c7 04 24 db 5d 10 00 	movl   $0x105ddb,(%esp)
  101cf3:	e8 40 07 00 00       	call   102438 <panic_assert>
  101cf8:	c7 45 f4 00 00 00 00 	movl   $0x0,-0xc(%ebp)
  101cff:	eb 04                	jmp    101d05 <insert_ordered_array+0x39>
  101d01:	83 45 f4 01          	addl   $0x1,-0xc(%ebp)
  101d05:	8b 45 0c             	mov    0xc(%ebp),%eax
  101d08:	8b 40 04             	mov    0x4(%eax),%eax
  101d0b:	3b 45 f4             	cmp    -0xc(%ebp),%eax
  101d0e:	76 25                	jbe    101d35 <insert_ordered_array+0x69>
  101d10:	8b 45 0c             	mov    0xc(%ebp),%eax
  101d13:	8b 48 0c             	mov    0xc(%eax),%ecx
  101d16:	8b 45 0c             	mov    0xc(%ebp),%eax
  101d19:	8b 00                	mov    (%eax),%eax
  101d1b:	8b 55 f4             	mov    -0xc(%ebp),%edx
  101d1e:	c1 e2 02             	shl    $0x2,%edx
  101d21:	01 d0                	add    %edx,%eax
  101d23:	8b 00                	mov    (%eax),%eax
  101d25:	8b 55 08             	mov    0x8(%ebp),%edx
  101d28:	89 54 24 04          	mov    %edx,0x4(%esp)
  101d2c:	89 04 24             	mov    %eax,(%esp)
  101d2f:	ff d1                	call   *%ecx
  101d31:	84 c0                	test   %al,%al
  101d33:	75 cc                	jne    101d01 <insert_ordered_array+0x35>
  101d35:	8b 45 0c             	mov    0xc(%ebp),%eax
  101d38:	8b 40 04             	mov    0x4(%eax),%eax
  101d3b:	3b 45 f4             	cmp    -0xc(%ebp),%eax
  101d3e:	75 24                	jne    101d64 <insert_ordered_array+0x98>
  101d40:	8b 45 0c             	mov    0xc(%ebp),%eax
  101d43:	8b 08                	mov    (%eax),%ecx
  101d45:	8b 45 0c             	mov    0xc(%ebp),%eax
  101d48:	8b 40 04             	mov    0x4(%eax),%eax
  101d4b:	8d 14 85 00 00 00 00 	lea    0x0(,%eax,4),%edx
  101d52:	01 d1                	add    %edx,%ecx
  101d54:	8b 55 08             	mov    0x8(%ebp),%edx
  101d57:	89 11                	mov    %edx,(%ecx)
  101d59:	8d 50 01             	lea    0x1(%eax),%edx
  101d5c:	8b 45 0c             	mov    0xc(%ebp),%eax
  101d5f:	89 50 04             	mov    %edx,0x4(%eax)
  101d62:	eb 6e                	jmp    101dd2 <insert_ordered_array+0x106>
  101d64:	8b 45 0c             	mov    0xc(%ebp),%eax
  101d67:	8b 00                	mov    (%eax),%eax
  101d69:	8b 55 f4             	mov    -0xc(%ebp),%edx
  101d6c:	c1 e2 02             	shl    $0x2,%edx
  101d6f:	01 d0                	add    %edx,%eax
  101d71:	8b 00                	mov    (%eax),%eax
  101d73:	89 45 f0             	mov    %eax,-0x10(%ebp)
  101d76:	8b 45 0c             	mov    0xc(%ebp),%eax
  101d79:	8b 00                	mov    (%eax),%eax
  101d7b:	8b 55 f4             	mov    -0xc(%ebp),%edx
  101d7e:	c1 e2 02             	shl    $0x2,%edx
  101d81:	01 c2                	add    %eax,%edx
  101d83:	8b 45 08             	mov    0x8(%ebp),%eax
  101d86:	89 02                	mov    %eax,(%edx)
  101d88:	eb 2e                	jmp    101db8 <insert_ordered_array+0xec>
  101d8a:	83 45 f4 01          	addl   $0x1,-0xc(%ebp)
  101d8e:	8b 45 0c             	mov    0xc(%ebp),%eax
  101d91:	8b 00                	mov    (%eax),%eax
  101d93:	8b 55 f4             	mov    -0xc(%ebp),%edx
  101d96:	c1 e2 02             	shl    $0x2,%edx
  101d99:	01 d0                	add    %edx,%eax
  101d9b:	8b 00                	mov    (%eax),%eax
  101d9d:	89 45 ec             	mov    %eax,-0x14(%ebp)
  101da0:	8b 45 0c             	mov    0xc(%ebp),%eax
  101da3:	8b 00                	mov    (%eax),%eax
  101da5:	8b 55 f4             	mov    -0xc(%ebp),%edx
  101da8:	c1 e2 02             	shl    $0x2,%edx
  101dab:	01 c2                	add    %eax,%edx
  101dad:	8b 45 f0             	mov    -0x10(%ebp),%eax
  101db0:	89 02                	mov    %eax,(%edx)
  101db2:	8b 45 ec             	mov    -0x14(%ebp),%eax
  101db5:	89 45 f0             	mov    %eax,-0x10(%ebp)
  101db8:	8b 45 0c             	mov    0xc(%ebp),%eax
  101dbb:	8b 40 04             	mov    0x4(%eax),%eax
  101dbe:	3b 45 f4             	cmp    -0xc(%ebp),%eax
  101dc1:	77 c7                	ja     101d8a <insert_ordered_array+0xbe>
  101dc3:	8b 45 0c             	mov    0xc(%ebp),%eax
  101dc6:	8b 40 04             	mov    0x4(%eax),%eax
  101dc9:	8d 50 01             	lea    0x1(%eax),%edx
  101dcc:	8b 45 0c             	mov    0xc(%ebp),%eax
  101dcf:	89 50 04             	mov    %edx,0x4(%eax)
  101dd2:	c9                   	leave  
  101dd3:	c3                   	ret    

00101dd4 <lookup_ordered_array>:
  101dd4:	55                   	push   %ebp
  101dd5:	89 e5                	mov    %esp,%ebp
  101dd7:	83 ec 18             	sub    $0x18,%esp
  101dda:	8b 45 0c             	mov    0xc(%ebp),%eax
  101ddd:	8b 40 04             	mov    0x4(%eax),%eax
  101de0:	3b 45 08             	cmp    0x8(%ebp),%eax
  101de3:	77 1c                	ja     101e01 <lookup_ordered_array+0x2d>
  101de5:	c7 44 24 08 f3 5d 10 	movl   $0x105df3,0x8(%esp)
  101dec:	00 
  101ded:	c7 44 24 04 3e 00 00 	movl   $0x3e,0x4(%esp)
  101df4:	00 
  101df5:	c7 04 24 db 5d 10 00 	movl   $0x105ddb,(%esp)
  101dfc:	e8 37 06 00 00       	call   102438 <panic_assert>
  101e01:	8b 45 0c             	mov    0xc(%ebp),%eax
  101e04:	8b 00                	mov    (%eax),%eax
  101e06:	8b 55 08             	mov    0x8(%ebp),%edx
  101e09:	c1 e2 02             	shl    $0x2,%edx
  101e0c:	01 d0                	add    %edx,%eax
  101e0e:	8b 00                	mov    (%eax),%eax
  101e10:	c9                   	leave  
  101e11:	c3                   	ret    

00101e12 <remove_ordered_array>:
  101e12:	55                   	push   %ebp
  101e13:	89 e5                	mov    %esp,%ebp
  101e15:	eb 25                	jmp    101e3c <remove_ordered_array+0x2a>
  101e17:	8b 45 0c             	mov    0xc(%ebp),%eax
  101e1a:	8b 00                	mov    (%eax),%eax
  101e1c:	8b 55 08             	mov    0x8(%ebp),%edx
  101e1f:	c1 e2 02             	shl    $0x2,%edx
  101e22:	01 c2                	add    %eax,%edx
  101e24:	8b 45 0c             	mov    0xc(%ebp),%eax
  101e27:	8b 00                	mov    (%eax),%eax
  101e29:	8b 4d 08             	mov    0x8(%ebp),%ecx
  101e2c:	83 c1 01             	add    $0x1,%ecx
  101e2f:	c1 e1 02             	shl    $0x2,%ecx
  101e32:	01 c8                	add    %ecx,%eax
  101e34:	8b 00                	mov    (%eax),%eax
  101e36:	89 02                	mov    %eax,(%edx)
  101e38:	83 45 08 01          	addl   $0x1,0x8(%ebp)
  101e3c:	8b 45 0c             	mov    0xc(%ebp),%eax
  101e3f:	8b 40 04             	mov    0x4(%eax),%eax
  101e42:	3b 45 08             	cmp    0x8(%ebp),%eax
  101e45:	77 d0                	ja     101e17 <remove_ordered_array+0x5>
  101e47:	8b 45 0c             	mov    0xc(%ebp),%eax
  101e4a:	8b 40 04             	mov    0x4(%eax),%eax
  101e4d:	8d 50 ff             	lea    -0x1(%eax),%edx
  101e50:	8b 45 0c             	mov    0xc(%ebp),%eax
  101e53:	89 50 04             	mov    %edx,0x4(%eax)
  101e56:	5d                   	pop    %ebp
  101e57:	c3                   	ret    

00101e58 <set_frame>:
  101e58:	55                   	push   %ebp
  101e59:	89 e5                	mov    %esp,%ebp
  101e5b:	57                   	push   %edi
  101e5c:	56                   	push   %esi
  101e5d:	53                   	push   %ebx
  101e5e:	83 ec 10             	sub    $0x10,%esp
  101e61:	8b 45 08             	mov    0x8(%ebp),%eax
  101e64:	c1 e8 0c             	shr    $0xc,%eax
  101e67:	89 45 f0             	mov    %eax,-0x10(%ebp)
  101e6a:	8b 45 f0             	mov    -0x10(%ebp),%eax
  101e6d:	c1 e8 05             	shr    $0x5,%eax
  101e70:	89 45 ec             	mov    %eax,-0x14(%ebp)
  101e73:	8b 45 f0             	mov    -0x10(%ebp),%eax
  101e76:	83 e0 1f             	and    $0x1f,%eax
  101e79:	89 45 e8             	mov    %eax,-0x18(%ebp)
  101e7c:	a1 20 70 10 00       	mov    0x107020,%eax
  101e81:	8b 55 ec             	mov    -0x14(%ebp),%edx
  101e84:	c1 e2 02             	shl    $0x2,%edx
  101e87:	01 c2                	add    %eax,%edx
  101e89:	a1 20 70 10 00       	mov    0x107020,%eax
  101e8e:	8b 4d ec             	mov    -0x14(%ebp),%ecx
  101e91:	c1 e1 02             	shl    $0x2,%ecx
  101e94:	01 c8                	add    %ecx,%eax
  101e96:	8b 18                	mov    (%eax),%ebx
  101e98:	8b 45 e8             	mov    -0x18(%ebp),%eax
  101e9b:	be 01 00 00 00       	mov    $0x1,%esi
  101ea0:	89 f7                	mov    %esi,%edi
  101ea2:	89 c1                	mov    %eax,%ecx
  101ea4:	d3 e7                	shl    %cl,%edi
  101ea6:	89 f8                	mov    %edi,%eax
  101ea8:	09 d8                	or     %ebx,%eax
  101eaa:	89 02                	mov    %eax,(%edx)
  101eac:	83 c4 10             	add    $0x10,%esp
  101eaf:	5b                   	pop    %ebx
  101eb0:	5e                   	pop    %esi
  101eb1:	5f                   	pop    %edi
  101eb2:	5d                   	pop    %ebp
  101eb3:	c3                   	ret    

00101eb4 <clear_frame>:
  101eb4:	55                   	push   %ebp
  101eb5:	89 e5                	mov    %esp,%ebp
  101eb7:	57                   	push   %edi
  101eb8:	56                   	push   %esi
  101eb9:	53                   	push   %ebx
  101eba:	83 ec 10             	sub    $0x10,%esp
  101ebd:	8b 45 08             	mov    0x8(%ebp),%eax
  101ec0:	c1 e8 0c             	shr    $0xc,%eax
  101ec3:	89 45 f0             	mov    %eax,-0x10(%ebp)
  101ec6:	8b 45 f0             	mov    -0x10(%ebp),%eax
  101ec9:	c1 e8 05             	shr    $0x5,%eax
  101ecc:	89 45 ec             	mov    %eax,-0x14(%ebp)
  101ecf:	8b 45 f0             	mov    -0x10(%ebp),%eax
  101ed2:	83 e0 1f             	and    $0x1f,%eax
  101ed5:	89 45 e8             	mov    %eax,-0x18(%ebp)
  101ed8:	a1 20 70 10 00       	mov    0x107020,%eax
  101edd:	8b 55 ec             	mov    -0x14(%ebp),%edx
  101ee0:	c1 e2 02             	shl    $0x2,%edx
  101ee3:	01 c2                	add    %eax,%edx
  101ee5:	a1 20 70 10 00       	mov    0x107020,%eax
  101eea:	8b 4d ec             	mov    -0x14(%ebp),%ecx
  101eed:	c1 e1 02             	shl    $0x2,%ecx
  101ef0:	01 c8                	add    %ecx,%eax
  101ef2:	8b 18                	mov    (%eax),%ebx
  101ef4:	8b 45 e8             	mov    -0x18(%ebp),%eax
  101ef7:	be 01 00 00 00       	mov    $0x1,%esi
  101efc:	89 f7                	mov    %esi,%edi
  101efe:	89 c1                	mov    %eax,%ecx
  101f00:	d3 e7                	shl    %cl,%edi
  101f02:	89 f8                	mov    %edi,%eax
  101f04:	f7 d0                	not    %eax
  101f06:	21 d8                	and    %ebx,%eax
  101f08:	89 02                	mov    %eax,(%edx)
  101f0a:	83 c4 10             	add    $0x10,%esp
  101f0d:	5b                   	pop    %ebx
  101f0e:	5e                   	pop    %esi
  101f0f:	5f                   	pop    %edi
  101f10:	5d                   	pop    %ebp
  101f11:	c3                   	ret    

00101f12 <test_frame>:
  101f12:	55                   	push   %ebp
  101f13:	89 e5                	mov    %esp,%ebp
  101f15:	56                   	push   %esi
  101f16:	53                   	push   %ebx
  101f17:	83 ec 10             	sub    $0x10,%esp
  101f1a:	8b 45 08             	mov    0x8(%ebp),%eax
  101f1d:	c1 e8 0c             	shr    $0xc,%eax
  101f20:	89 45 f4             	mov    %eax,-0xc(%ebp)
  101f23:	8b 45 f4             	mov    -0xc(%ebp),%eax
  101f26:	c1 e8 05             	shr    $0x5,%eax
  101f29:	89 45 f0             	mov    %eax,-0x10(%ebp)
  101f2c:	8b 45 f4             	mov    -0xc(%ebp),%eax
  101f2f:	83 e0 1f             	and    $0x1f,%eax
  101f32:	89 45 ec             	mov    %eax,-0x14(%ebp)
  101f35:	a1 20 70 10 00       	mov    0x107020,%eax
  101f3a:	8b 55 f0             	mov    -0x10(%ebp),%edx
  101f3d:	c1 e2 02             	shl    $0x2,%edx
  101f40:	01 d0                	add    %edx,%eax
  101f42:	8b 10                	mov    (%eax),%edx
  101f44:	8b 45 ec             	mov    -0x14(%ebp),%eax
  101f47:	bb 01 00 00 00       	mov    $0x1,%ebx
  101f4c:	89 de                	mov    %ebx,%esi
  101f4e:	89 c1                	mov    %eax,%ecx
  101f50:	d3 e6                	shl    %cl,%esi
  101f52:	89 f0                	mov    %esi,%eax
  101f54:	21 d0                	and    %edx,%eax
  101f56:	83 c4 10             	add    $0x10,%esp
  101f59:	5b                   	pop    %ebx
  101f5a:	5e                   	pop    %esi
  101f5b:	5d                   	pop    %ebp
  101f5c:	c3                   	ret    

00101f5d <first_frame>:
  101f5d:	55                   	push   %ebp
  101f5e:	89 e5                	mov    %esp,%ebp
  101f60:	53                   	push   %ebx
  101f61:	83 ec 10             	sub    $0x10,%esp
  101f64:	c7 45 f8 00 00 00 00 	movl   $0x0,-0x8(%ebp)
  101f6b:	eb 5f                	jmp    101fcc <first_frame+0x6f>
  101f6d:	a1 20 70 10 00       	mov    0x107020,%eax
  101f72:	8b 55 f8             	mov    -0x8(%ebp),%edx
  101f75:	c1 e2 02             	shl    $0x2,%edx
  101f78:	01 d0                	add    %edx,%eax
  101f7a:	8b 00                	mov    (%eax),%eax
  101f7c:	83 f8 ff             	cmp    $0xffffffff,%eax
  101f7f:	74 47                	je     101fc8 <first_frame+0x6b>
  101f81:	c7 45 f4 00 00 00 00 	movl   $0x0,-0xc(%ebp)
  101f88:	eb 38                	jmp    101fc2 <first_frame+0x65>
  101f8a:	8b 45 f4             	mov    -0xc(%ebp),%eax
  101f8d:	ba 01 00 00 00       	mov    $0x1,%edx
  101f92:	89 d3                	mov    %edx,%ebx
  101f94:	89 c1                	mov    %eax,%ecx
  101f96:	d3 e3                	shl    %cl,%ebx
  101f98:	89 d8                	mov    %ebx,%eax
  101f9a:	89 45 f0             	mov    %eax,-0x10(%ebp)
  101f9d:	a1 20 70 10 00       	mov    0x107020,%eax
  101fa2:	8b 55 f8             	mov    -0x8(%ebp),%edx
  101fa5:	c1 e2 02             	shl    $0x2,%edx
  101fa8:	01 d0                	add    %edx,%eax
  101faa:	8b 00                	mov    (%eax),%eax
  101fac:	23 45 f0             	and    -0x10(%ebp),%eax
  101faf:	85 c0                	test   %eax,%eax
  101fb1:	75 0b                	jne    101fbe <first_frame+0x61>
  101fb3:	8b 45 f8             	mov    -0x8(%ebp),%eax
  101fb6:	c1 e0 05             	shl    $0x5,%eax
  101fb9:	03 45 f4             	add    -0xc(%ebp),%eax
  101fbc:	eb 20                	jmp    101fde <first_frame+0x81>
  101fbe:	83 45 f4 01          	addl   $0x1,-0xc(%ebp)
  101fc2:	83 7d f4 1f          	cmpl   $0x1f,-0xc(%ebp)
  101fc6:	76 c2                	jbe    101f8a <first_frame+0x2d>
  101fc8:	83 45 f8 01          	addl   $0x1,-0x8(%ebp)
  101fcc:	a1 1c 70 10 00       	mov    0x10701c,%eax
  101fd1:	c1 e8 05             	shr    $0x5,%eax
  101fd4:	3b 45 f8             	cmp    -0x8(%ebp),%eax
  101fd7:	77 94                	ja     101f6d <first_frame+0x10>
  101fd9:	b8 ff ff ff ff       	mov    $0xffffffff,%eax
  101fde:	83 c4 10             	add    $0x10,%esp
  101fe1:	5b                   	pop    %ebx
  101fe2:	5d                   	pop    %ebp
  101fe3:	c3                   	ret    

00101fe4 <alloc_frame>:
  101fe4:	55                   	push   %ebp
  101fe5:	89 e5                	mov    %esp,%ebp
  101fe7:	83 ec 38             	sub    $0x38,%esp
  101fea:	8b 55 0c             	mov    0xc(%ebp),%edx
  101fed:	8b 45 10             	mov    0x10(%ebp),%eax
  101ff0:	88 55 e4             	mov    %dl,-0x1c(%ebp)
  101ff3:	88 45 e0             	mov    %al,-0x20(%ebp)
  101ff6:	8b 45 08             	mov    0x8(%ebp),%eax
  101ff9:	8b 00                	mov    (%eax),%eax
  101ffb:	25 00 f0 ff ff       	and    $0xfffff000,%eax
  102000:	85 c0                	test   %eax,%eax
  102002:	0f 85 a9 00 00 00    	jne    1020b1 <alloc_frame+0xcd>
  102008:	e8 50 ff ff ff       	call   101f5d <first_frame>
  10200d:	89 45 f4             	mov    %eax,-0xc(%ebp)
  102010:	83 7d f4 ff          	cmpl   $0xffffffff,-0xc(%ebp)
  102014:	75 1c                	jne    102032 <alloc_frame+0x4e>
  102016:	c7 44 24 08 54 00 00 	movl   $0x54,0x8(%esp)
  10201d:	00 
  10201e:	c7 44 24 04 03 5e 10 	movl   $0x105e03,0x4(%esp)
  102025:	00 
  102026:	c7 04 24 10 5e 10 00 	movl   $0x105e10,(%esp)
  10202d:	e8 6c 04 00 00       	call   10249e <panic>
  102032:	8b 45 f4             	mov    -0xc(%ebp),%eax
  102035:	c1 e0 0c             	shl    $0xc,%eax
  102038:	89 04 24             	mov    %eax,(%esp)
  10203b:	e8 18 fe ff ff       	call   101e58 <set_frame>
  102040:	8b 45 08             	mov    0x8(%ebp),%eax
  102043:	0f b6 10             	movzbl (%eax),%edx
  102046:	83 ca 01             	or     $0x1,%edx
  102049:	88 10                	mov    %dl,(%eax)
  10204b:	0f b6 45 e0          	movzbl -0x20(%ebp),%eax
  10204f:	89 c2                	mov    %eax,%edx
  102051:	83 e2 01             	and    $0x1,%edx
  102054:	8b 45 08             	mov    0x8(%ebp),%eax
  102057:	83 e2 01             	and    $0x1,%edx
  10205a:	8d 0c 12             	lea    (%edx,%edx,1),%ecx
  10205d:	0f b6 10             	movzbl (%eax),%edx
  102060:	83 e2 fd             	and    $0xfffffffd,%edx
  102063:	09 ca                	or     %ecx,%edx
  102065:	88 10                	mov    %dl,(%eax)
  102067:	80 7d e4 00          	cmpb   $0x0,-0x1c(%ebp)
  10206b:	74 07                	je     102074 <alloc_frame+0x90>
  10206d:	ba 00 00 00 00       	mov    $0x0,%edx
  102072:	eb 05                	jmp    102079 <alloc_frame+0x95>
  102074:	ba 01 00 00 00       	mov    $0x1,%edx
  102079:	8b 45 08             	mov    0x8(%ebp),%eax
  10207c:	83 e2 01             	and    $0x1,%edx
  10207f:	8d 0c 95 00 00 00 00 	lea    0x0(,%edx,4),%ecx
  102086:	0f b6 10             	movzbl (%eax),%edx
  102089:	83 e2 fb             	and    $0xfffffffb,%edx
  10208c:	09 ca                	or     %ecx,%edx
  10208e:	88 10                	mov    %dl,(%eax)
  102090:	8b 45 f4             	mov    -0xc(%ebp),%eax
  102093:	89 c2                	mov    %eax,%edx
  102095:	81 e2 ff ff 0f 00    	and    $0xfffff,%edx
  10209b:	8b 45 08             	mov    0x8(%ebp),%eax
  10209e:	89 d1                	mov    %edx,%ecx
  1020a0:	c1 e1 0c             	shl    $0xc,%ecx
  1020a3:	8b 10                	mov    (%eax),%edx
  1020a5:	81 e2 ff 0f 00 00    	and    $0xfff,%edx
  1020ab:	09 ca                	or     %ecx,%edx
  1020ad:	89 10                	mov    %edx,(%eax)
  1020af:	eb 01                	jmp    1020b2 <alloc_frame+0xce>
  1020b1:	90                   	nop
  1020b2:	c9                   	leave  
  1020b3:	c3                   	ret    

001020b4 <free_frame>:
  1020b4:	55                   	push   %ebp
  1020b5:	89 e5                	mov    %esp,%ebp
  1020b7:	83 ec 14             	sub    $0x14,%esp
  1020ba:	8b 45 08             	mov    0x8(%ebp),%eax
  1020bd:	8b 00                	mov    (%eax),%eax
  1020bf:	c1 e8 0c             	shr    $0xc,%eax
  1020c2:	89 45 fc             	mov    %eax,-0x4(%ebp)
  1020c5:	83 7d fc 00          	cmpl   $0x0,-0x4(%ebp)
  1020c9:	74 1a                	je     1020e5 <free_frame+0x31>
  1020cb:	8b 45 fc             	mov    -0x4(%ebp),%eax
  1020ce:	89 04 24             	mov    %eax,(%esp)
  1020d1:	e8 de fd ff ff       	call   101eb4 <clear_frame>
  1020d6:	8b 45 08             	mov    0x8(%ebp),%eax
  1020d9:	8b 10                	mov    (%eax),%edx
  1020db:	81 e2 ff 0f 00 00    	and    $0xfff,%edx
  1020e1:	89 10                	mov    %edx,(%eax)
  1020e3:	eb 01                	jmp    1020e6 <free_frame+0x32>
  1020e5:	90                   	nop
  1020e6:	c9                   	leave  
  1020e7:	c3                   	ret    

001020e8 <paging_init>:
  1020e8:	55                   	push   %ebp
  1020e9:	89 e5                	mov    %esp,%ebp
  1020eb:	83 ec 38             	sub    $0x38,%esp
  1020ee:	c7 45 f0 00 00 00 02 	movl   $0x2000000,-0x10(%ebp)
  1020f5:	8b 45 f0             	mov    -0x10(%ebp),%eax
  1020f8:	c1 e8 0c             	shr    $0xc,%eax
  1020fb:	a3 1c 70 10 00       	mov    %eax,0x10701c
  102100:	a1 1c 70 10 00       	mov    0x10701c,%eax
  102105:	c1 e8 05             	shr    $0x5,%eax
  102108:	89 04 24             	mov    %eax,(%esp)
  10210b:	e8 a3 ee ff ff       	call   100fb3 <kmalloc>
  102110:	a3 20 70 10 00       	mov    %eax,0x107020
  102115:	a1 1c 70 10 00       	mov    0x10701c,%eax
  10211a:	89 c2                	mov    %eax,%edx
  10211c:	c1 ea 05             	shr    $0x5,%edx
  10211f:	a1 20 70 10 00       	mov    0x107020,%eax
  102124:	89 54 24 08          	mov    %edx,0x8(%esp)
  102128:	c7 44 24 04 00 00 00 	movl   $0x0,0x4(%esp)
  10212f:	00 
  102130:	89 04 24             	mov    %eax,(%esp)
  102133:	e8 64 08 00 00       	call   10299c <memset>
  102138:	c7 04 24 04 20 00 00 	movl   $0x2004,(%esp)
  10213f:	e8 08 ee ff ff       	call   100f4c <kmalloc_a>
  102144:	a3 04 70 10 00       	mov    %eax,0x107004
  102149:	a1 04 70 10 00       	mov    0x107004,%eax
  10214e:	c7 44 24 08 04 20 00 	movl   $0x2004,0x8(%esp)
  102155:	00 
  102156:	c7 44 24 04 00 00 00 	movl   $0x0,0x4(%esp)
  10215d:	00 
  10215e:	89 04 24             	mov    %eax,(%esp)
  102161:	e8 36 08 00 00       	call   10299c <memset>
  102166:	a1 04 70 10 00       	mov    0x107004,%eax
  10216b:	a3 08 70 10 00       	mov    %eax,0x107008
  102170:	c7 45 f4 00 00 00 00 	movl   $0x0,-0xc(%ebp)
  102177:	c7 45 f4 00 00 00 c0 	movl   $0xc0000000,-0xc(%ebp)
  10217e:	eb 24                	jmp    1021a4 <paging_init+0xbc>
  102180:	8b 15 04 70 10 00    	mov    0x107004,%edx
  102186:	8b 45 f4             	mov    -0xc(%ebp),%eax
  102189:	89 54 24 08          	mov    %edx,0x8(%esp)
  10218d:	c7 44 24 04 01 00 00 	movl   $0x1,0x4(%esp)
  102194:	00 
  102195:	89 04 24             	mov    %eax,(%esp)
  102198:	e8 2b 01 00 00       	call   1022c8 <paging_get_page>
  10219d:	81 45 f4 00 10 00 00 	addl   $0x1000,-0xc(%ebp)
  1021a4:	8b 45 f4             	mov    -0xc(%ebp),%eax
  1021a7:	3d ff ff 0f c0       	cmp    $0xc00fffff,%eax
  1021ac:	76 d2                	jbe    102180 <paging_init+0x98>
  1021ae:	c7 45 f4 00 00 00 00 	movl   $0x0,-0xc(%ebp)
  1021b5:	eb 3c                	jmp    1021f3 <paging_init+0x10b>
  1021b7:	8b 15 04 70 10 00    	mov    0x107004,%edx
  1021bd:	8b 45 f4             	mov    -0xc(%ebp),%eax
  1021c0:	89 54 24 08          	mov    %edx,0x8(%esp)
  1021c4:	c7 44 24 04 01 00 00 	movl   $0x1,0x4(%esp)
  1021cb:	00 
  1021cc:	89 04 24             	mov    %eax,(%esp)
  1021cf:	e8 f4 00 00 00       	call   1022c8 <paging_get_page>
  1021d4:	c7 44 24 08 00 00 00 	movl   $0x0,0x8(%esp)
  1021db:	00 
  1021dc:	c7 44 24 04 00 00 00 	movl   $0x0,0x4(%esp)
  1021e3:	00 
  1021e4:	89 04 24             	mov    %eax,(%esp)
  1021e7:	e8 f8 fd ff ff       	call   101fe4 <alloc_frame>
  1021ec:	81 45 f4 00 10 00 00 	addl   $0x1000,-0xc(%ebp)
  1021f3:	8b 45 f4             	mov    -0xc(%ebp),%eax
  1021f6:	8b 15 70 3b 10 00    	mov    0x103b70,%edx
  1021fc:	81 c2 00 10 00 00    	add    $0x1000,%edx
  102202:	39 d0                	cmp    %edx,%eax
  102204:	72 b1                	jb     1021b7 <paging_init+0xcf>
  102206:	c7 45 f4 00 00 00 c0 	movl   $0xc0000000,-0xc(%ebp)
  10220d:	eb 3c                	jmp    10224b <paging_init+0x163>
  10220f:	8b 15 04 70 10 00    	mov    0x107004,%edx
  102215:	8b 45 f4             	mov    -0xc(%ebp),%eax
  102218:	89 54 24 08          	mov    %edx,0x8(%esp)
  10221c:	c7 44 24 04 01 00 00 	movl   $0x1,0x4(%esp)
  102223:	00 
  102224:	89 04 24             	mov    %eax,(%esp)
  102227:	e8 9c 00 00 00       	call   1022c8 <paging_get_page>
  10222c:	c7 44 24 08 00 00 00 	movl   $0x0,0x8(%esp)
  102233:	00 
  102234:	c7 44 24 04 00 00 00 	movl   $0x0,0x4(%esp)
  10223b:	00 
  10223c:	89 04 24             	mov    %eax,(%esp)
  10223f:	e8 a0 fd ff ff       	call   101fe4 <alloc_frame>
  102244:	81 45 f4 00 10 00 00 	addl   $0x1000,-0xc(%ebp)
  10224b:	8b 45 f4             	mov    -0xc(%ebp),%eax
  10224e:	3d ff ff 0f c0       	cmp    $0xc00fffff,%eax
  102253:	76 ba                	jbe    10220f <paging_init+0x127>
  102255:	a1 04 70 10 00       	mov    0x107004,%eax
  10225a:	89 04 24             	mov    %eax,(%esp)
  10225d:	e8 33 00 00 00       	call   102295 <paging_switch_directory>
  102262:	c7 44 24 10 00 00 00 	movl   $0x0,0x10(%esp)
  102269:	00 
  10226a:	c7 44 24 0c 00 00 00 	movl   $0x0,0xc(%esp)
  102271:	00 
  102272:	c7 44 24 08 00 f0 ff 	movl   $0xcffff000,0x8(%esp)
  102279:	cf 
  10227a:	c7 44 24 04 00 00 10 	movl   $0xc0100000,0x4(%esp)
  102281:	c0 
  102282:	c7 04 24 00 00 00 c0 	movl   $0xc0000000,(%esp)
  102289:	e8 ff ef ff ff       	call   10128d <create_heap>
  10228e:	a3 00 70 10 00       	mov    %eax,0x107000
  102293:	c9                   	leave  
  102294:	c3                   	ret    

00102295 <paging_switch_directory>:
  102295:	55                   	push   %ebp
  102296:	89 e5                	mov    %esp,%ebp
  102298:	53                   	push   %ebx
  102299:	83 ec 10             	sub    $0x10,%esp
  10229c:	8b 45 08             	mov    0x8(%ebp),%eax
  10229f:	a3 08 70 10 00       	mov    %eax,0x107008
  1022a4:	8b 45 08             	mov    0x8(%ebp),%eax
  1022a7:	05 00 10 00 00       	add    $0x1000,%eax
  1022ac:	0f 22 d8             	mov    %eax,%cr3
  1022af:	0f 20 c3             	mov    %cr0,%ebx
  1022b2:	89 5d f8             	mov    %ebx,-0x8(%ebp)
  1022b5:	81 4d f8 00 00 00 80 	orl    $0x80000000,-0x8(%ebp)
  1022bc:	8b 45 f8             	mov    -0x8(%ebp),%eax
  1022bf:	0f 22 c0             	mov    %eax,%cr0
  1022c2:	83 c4 10             	add    $0x10,%esp
  1022c5:	5b                   	pop    %ebx
  1022c6:	5d                   	pop    %ebp
  1022c7:	c3                   	ret    

001022c8 <paging_get_page>:
  1022c8:	55                   	push   %ebp
  1022c9:	89 e5                	mov    %esp,%ebp
  1022cb:	83 ec 38             	sub    $0x38,%esp
  1022ce:	8b 45 0c             	mov    0xc(%ebp),%eax
  1022d1:	88 45 e4             	mov    %al,-0x1c(%ebp)
  1022d4:	8b 45 08             	mov    0x8(%ebp),%eax
  1022d7:	c1 e8 0c             	shr    $0xc,%eax
  1022da:	89 45 08             	mov    %eax,0x8(%ebp)
  1022dd:	8b 45 08             	mov    0x8(%ebp),%eax
  1022e0:	c1 e8 0a             	shr    $0xa,%eax
  1022e3:	89 45 f4             	mov    %eax,-0xc(%ebp)
  1022e6:	8b 45 10             	mov    0x10(%ebp),%eax
  1022e9:	8b 55 f4             	mov    -0xc(%ebp),%edx
  1022ec:	8b 04 90             	mov    (%eax,%edx,4),%eax
  1022ef:	85 c0                	test   %eax,%eax
  1022f1:	74 19                	je     10230c <paging_get_page+0x44>
  1022f3:	8b 45 10             	mov    0x10(%ebp),%eax
  1022f6:	8b 55 f4             	mov    -0xc(%ebp),%edx
  1022f9:	8b 04 90             	mov    (%eax,%edx,4),%eax
  1022fc:	8b 55 08             	mov    0x8(%ebp),%edx
  1022ff:	81 e2 ff 03 00 00    	and    $0x3ff,%edx
  102305:	c1 e2 02             	shl    $0x2,%edx
  102308:	01 d0                	add    %edx,%eax
  10230a:	eb 59                	jmp    102365 <paging_get_page+0x9d>
  10230c:	80 7d e4 00          	cmpb   $0x0,-0x1c(%ebp)
  102310:	74 4e                	je     102360 <paging_get_page+0x98>
  102312:	8d 45 f0             	lea    -0x10(%ebp),%eax
  102315:	89 44 24 04          	mov    %eax,0x4(%esp)
  102319:	c7 04 24 00 10 00 00 	movl   $0x1000,(%esp)
  102320:	e8 6c ec ff ff       	call   100f91 <kmalloc_ap>
  102325:	89 c1                	mov    %eax,%ecx
  102327:	8b 45 10             	mov    0x10(%ebp),%eax
  10232a:	8b 55 f4             	mov    -0xc(%ebp),%edx
  10232d:	89 0c 90             	mov    %ecx,(%eax,%edx,4)
  102330:	8b 45 f0             	mov    -0x10(%ebp),%eax
  102333:	89 c1                	mov    %eax,%ecx
  102335:	83 c9 07             	or     $0x7,%ecx
  102338:	8b 45 10             	mov    0x10(%ebp),%eax
  10233b:	8b 55 f4             	mov    -0xc(%ebp),%edx
  10233e:	81 c2 00 04 00 00    	add    $0x400,%edx
  102344:	89 0c 90             	mov    %ecx,(%eax,%edx,4)
  102347:	8b 45 10             	mov    0x10(%ebp),%eax
  10234a:	8b 55 f4             	mov    -0xc(%ebp),%edx
  10234d:	8b 04 90             	mov    (%eax,%edx,4),%eax
  102350:	8b 55 08             	mov    0x8(%ebp),%edx
  102353:	81 e2 ff 03 00 00    	and    $0x3ff,%edx
  102359:	c1 e2 02             	shl    $0x2,%edx
  10235c:	01 d0                	add    %edx,%eax
  10235e:	eb 05                	jmp    102365 <paging_get_page+0x9d>
  102360:	b8 00 00 00 00       	mov    $0x0,%eax
  102365:	c9                   	leave  
  102366:	c3                   	ret    

00102367 <paging_page_fault_handler>:
  102367:	55                   	push   %ebp
  102368:	89 e5                	mov    %esp,%ebp
  10236a:	53                   	push   %ebx
  10236b:	83 ec 34             	sub    $0x34,%esp
  10236e:	0f 20 d3             	mov    %cr2,%ebx
  102371:	89 5d f4             	mov    %ebx,-0xc(%ebp)
  102374:	8b 45 30             	mov    0x30(%ebp),%eax
  102377:	83 e0 01             	and    $0x1,%eax
  10237a:	85 c0                	test   %eax,%eax
  10237c:	0f 94 c0             	sete   %al
  10237f:	0f b6 c0             	movzbl %al,%eax
  102382:	89 45 f0             	mov    %eax,-0x10(%ebp)
  102385:	8b 45 30             	mov    0x30(%ebp),%eax
  102388:	83 e0 02             	and    $0x2,%eax
  10238b:	89 45 ec             	mov    %eax,-0x14(%ebp)
  10238e:	8b 45 30             	mov    0x30(%ebp),%eax
  102391:	83 e0 04             	and    $0x4,%eax
  102394:	89 45 e8             	mov    %eax,-0x18(%ebp)
  102397:	8b 45 30             	mov    0x30(%ebp),%eax
  10239a:	83 e0 08             	and    $0x8,%eax
  10239d:	89 45 e4             	mov    %eax,-0x1c(%ebp)
  1023a0:	8b 45 30             	mov    0x30(%ebp),%eax
  1023a3:	83 e0 10             	and    $0x10,%eax
  1023a6:	89 45 e0             	mov    %eax,-0x20(%ebp)
  1023a9:	c7 44 24 04 00 00 00 	movl   $0x0,0x4(%esp)
  1023b0:	00 
  1023b1:	c7 04 24 00 00 00 00 	movl   $0x0,(%esp)
  1023b8:	e8 22 12 00 00       	call   1035df <terminal_setPos>
  1023bd:	c7 04 24 1f 5e 10 00 	movl   $0x105e1f,(%esp)
  1023c4:	e8 b8 0f 00 00       	call   103381 <terminal_write_string>
  1023c9:	83 7d f0 00          	cmpl   $0x0,-0x10(%ebp)
  1023cd:	74 0c                	je     1023db <paging_page_fault_handler+0x74>
  1023cf:	c7 04 24 2e 5e 10 00 	movl   $0x105e2e,(%esp)
  1023d6:	e8 a6 0f 00 00       	call   103381 <terminal_write_string>
  1023db:	83 7d ec 00          	cmpl   $0x0,-0x14(%ebp)
  1023df:	74 0c                	je     1023ed <paging_page_fault_handler+0x86>
  1023e1:	c7 04 24 37 5e 10 00 	movl   $0x105e37,(%esp)
  1023e8:	e8 94 0f 00 00       	call   103381 <terminal_write_string>
  1023ed:	83 7d e8 00          	cmpl   $0x0,-0x18(%ebp)
  1023f1:	74 0c                	je     1023ff <paging_page_fault_handler+0x98>
  1023f3:	c7 04 24 42 5e 10 00 	movl   $0x105e42,(%esp)
  1023fa:	e8 82 0f 00 00       	call   103381 <terminal_write_string>
  1023ff:	83 7d e4 00          	cmpl   $0x0,-0x1c(%ebp)
  102403:	74 0c                	je     102411 <paging_page_fault_handler+0xaa>
  102405:	c7 04 24 4d 5e 10 00 	movl   $0x105e4d,(%esp)
  10240c:	e8 70 0f 00 00       	call   103381 <terminal_write_string>
  102411:	c7 04 24 57 5e 10 00 	movl   $0x105e57,(%esp)
  102418:	e8 64 0f 00 00       	call   103381 <terminal_write_string>
  10241d:	8b 45 f4             	mov    -0xc(%ebp),%eax
  102420:	89 04 24             	mov    %eax,(%esp)
  102423:	e8 35 10 00 00       	call   10345d <terminal_write_dword>
  102428:	c7 04 24 5f 5e 10 00 	movl   $0x105e5f,(%esp)
  10242f:	e8 4d 0f 00 00       	call   103381 <terminal_write_string>
  102434:	eb fe                	jmp    102434 <paging_page_fault_handler+0xcd>
	...

00102438 <panic_assert>:
  102438:	55                   	push   %ebp
  102439:	89 e5                	mov    %esp,%ebp
  10243b:	83 ec 18             	sub    $0x18,%esp
  10243e:	fa                   	cli    
  10243f:	c7 04 24 01 00 00 00 	movl   $0x1,(%esp)
  102446:	e8 65 0d 00 00       	call   1031b0 <terminal_initialize>
  10244b:	c7 04 24 61 5e 10 00 	movl   $0x105e61,(%esp)
  102452:	e8 2a 0f 00 00       	call   103381 <terminal_write_string>
  102457:	8b 45 10             	mov    0x10(%ebp),%eax
  10245a:	89 04 24             	mov    %eax,(%esp)
  10245d:	e8 1f 0f 00 00       	call   103381 <terminal_write_string>
  102462:	c7 04 24 73 5e 10 00 	movl   $0x105e73,(%esp)
  102469:	e8 13 0f 00 00       	call   103381 <terminal_write_string>
  10246e:	8b 45 08             	mov    0x8(%ebp),%eax
  102471:	89 04 24             	mov    %eax,(%esp)
  102474:	e8 08 0f 00 00       	call   103381 <terminal_write_string>
  102479:	c7 04 24 79 5e 10 00 	movl   $0x105e79,(%esp)
  102480:	e8 fc 0e 00 00       	call   103381 <terminal_write_string>
  102485:	8b 45 0c             	mov    0xc(%ebp),%eax
  102488:	89 04 24             	mov    %eax,(%esp)
  10248b:	e8 f4 0f 00 00       	call   103484 <terminal_write_int>
  102490:	c7 04 24 7b 5e 10 00 	movl   $0x105e7b,(%esp)
  102497:	e8 e5 0e 00 00       	call   103381 <terminal_write_string>
  10249c:	eb fe                	jmp    10249c <panic_assert+0x64>

0010249e <panic>:
  10249e:	55                   	push   %ebp
  10249f:	89 e5                	mov    %esp,%ebp
  1024a1:	83 ec 18             	sub    $0x18,%esp
  1024a4:	fa                   	cli    
  1024a5:	c7 04 24 01 00 00 00 	movl   $0x1,(%esp)
  1024ac:	e8 ff 0c 00 00       	call   1031b0 <terminal_initialize>
  1024b1:	c7 04 24 7d 5e 10 00 	movl   $0x105e7d,(%esp)
  1024b8:	e8 c4 0e 00 00       	call   103381 <terminal_write_string>
  1024bd:	8b 45 08             	mov    0x8(%ebp),%eax
  1024c0:	89 04 24             	mov    %eax,(%esp)
  1024c3:	e8 b9 0e 00 00       	call   103381 <terminal_write_string>
  1024c8:	c7 04 24 73 5e 10 00 	movl   $0x105e73,(%esp)
  1024cf:	e8 ad 0e 00 00       	call   103381 <terminal_write_string>
  1024d4:	8b 45 0c             	mov    0xc(%ebp),%eax
  1024d7:	89 04 24             	mov    %eax,(%esp)
  1024da:	e8 a2 0e 00 00       	call   103381 <terminal_write_string>
  1024df:	c7 04 24 79 5e 10 00 	movl   $0x105e79,(%esp)
  1024e6:	e8 96 0e 00 00       	call   103381 <terminal_write_string>
  1024eb:	8b 45 10             	mov    0x10(%ebp),%eax
  1024ee:	89 04 24             	mov    %eax,(%esp)
  1024f1:	e8 8e 0f 00 00       	call   103484 <terminal_write_int>
  1024f6:	c7 04 24 7b 5e 10 00 	movl   $0x105e7b,(%esp)
  1024fd:	e8 7f 0e 00 00       	call   103381 <terminal_write_string>
  102502:	eb fe                	jmp    102502 <panic+0x64>

00102504 <sys_pic_irq_set_mask>:
  102504:	55                   	push   %ebp
  102505:	89 e5                	mov    %esp,%ebp
  102507:	56                   	push   %esi
  102508:	53                   	push   %ebx
  102509:	83 ec 30             	sub    $0x30,%esp
  10250c:	8b 45 08             	mov    0x8(%ebp),%eax
  10250f:	88 45 e4             	mov    %al,-0x1c(%ebp)
  102512:	80 7d e4 07          	cmpb   $0x7,-0x1c(%ebp)
  102516:	77 08                	ja     102520 <sys_pic_irq_set_mask+0x1c>
  102518:	66 c7 45 f6 21 00    	movw   $0x21,-0xa(%ebp)
  10251e:	eb 0a                	jmp    10252a <sys_pic_irq_set_mask+0x26>
  102520:	66 c7 45 f6 a1 00    	movw   $0xa1,-0xa(%ebp)
  102526:	80 6d e4 08          	subb   $0x8,-0x1c(%ebp)
  10252a:	0f b7 45 f6          	movzwl -0xa(%ebp),%eax
  10252e:	89 04 24             	mov    %eax,(%esp)
  102531:	e8 10 e8 ff ff       	call   100d46 <io_inb>
  102536:	89 c2                	mov    %eax,%edx
  102538:	0f b6 45 e4          	movzbl -0x1c(%ebp),%eax
  10253c:	bb 01 00 00 00       	mov    $0x1,%ebx
  102541:	89 de                	mov    %ebx,%esi
  102543:	89 c1                	mov    %eax,%ecx
  102545:	d3 e6                	shl    %cl,%esi
  102547:	89 f0                	mov    %esi,%eax
  102549:	09 d0                	or     %edx,%eax
  10254b:	88 45 f5             	mov    %al,-0xb(%ebp)
  10254e:	0f b6 55 f5          	movzbl -0xb(%ebp),%edx
  102552:	0f b7 45 f6          	movzwl -0xa(%ebp),%eax
  102556:	89 54 24 04          	mov    %edx,0x4(%esp)
  10255a:	89 04 24             	mov    %eax,(%esp)
  10255d:	e8 c6 e7 ff ff       	call   100d28 <io_outb>
  102562:	83 c4 30             	add    $0x30,%esp
  102565:	5b                   	pop    %ebx
  102566:	5e                   	pop    %esi
  102567:	5d                   	pop    %ebp
  102568:	c3                   	ret    

00102569 <sys_pic_irq_clear_mask>:
  102569:	55                   	push   %ebp
  10256a:	89 e5                	mov    %esp,%ebp
  10256c:	56                   	push   %esi
  10256d:	53                   	push   %ebx
  10256e:	83 ec 30             	sub    $0x30,%esp
  102571:	8b 45 08             	mov    0x8(%ebp),%eax
  102574:	88 45 e4             	mov    %al,-0x1c(%ebp)
  102577:	80 7d e4 07          	cmpb   $0x7,-0x1c(%ebp)
  10257b:	77 08                	ja     102585 <sys_pic_irq_clear_mask+0x1c>
  10257d:	66 c7 45 f6 21 00    	movw   $0x21,-0xa(%ebp)
  102583:	eb 0a                	jmp    10258f <sys_pic_irq_clear_mask+0x26>
  102585:	66 c7 45 f6 a1 00    	movw   $0xa1,-0xa(%ebp)
  10258b:	80 6d e4 08          	subb   $0x8,-0x1c(%ebp)
  10258f:	0f b7 45 f6          	movzwl -0xa(%ebp),%eax
  102593:	89 04 24             	mov    %eax,(%esp)
  102596:	e8 ab e7 ff ff       	call   100d46 <io_inb>
  10259b:	89 c2                	mov    %eax,%edx
  10259d:	0f b6 45 e4          	movzbl -0x1c(%ebp),%eax
  1025a1:	bb 01 00 00 00       	mov    $0x1,%ebx
  1025a6:	89 de                	mov    %ebx,%esi
  1025a8:	89 c1                	mov    %eax,%ecx
  1025aa:	d3 e6                	shl    %cl,%esi
  1025ac:	89 f0                	mov    %esi,%eax
  1025ae:	f7 d0                	not    %eax
  1025b0:	21 d0                	and    %edx,%eax
  1025b2:	88 45 f5             	mov    %al,-0xb(%ebp)
  1025b5:	0f b6 55 f5          	movzbl -0xb(%ebp),%edx
  1025b9:	0f b7 45 f6          	movzwl -0xa(%ebp),%eax
  1025bd:	89 54 24 04          	mov    %edx,0x4(%esp)
  1025c1:	89 04 24             	mov    %eax,(%esp)
  1025c4:	e8 5f e7 ff ff       	call   100d28 <io_outb>
  1025c9:	83 c4 30             	add    $0x30,%esp
  1025cc:	5b                   	pop    %ebx
  1025cd:	5e                   	pop    %esi
  1025ce:	5d                   	pop    %ebp
  1025cf:	c3                   	ret    

001025d0 <sys_pic_irq_remap>:
  1025d0:	55                   	push   %ebp
  1025d1:	89 e5                	mov    %esp,%ebp
  1025d3:	83 ec 38             	sub    $0x38,%esp
  1025d6:	8b 55 08             	mov    0x8(%ebp),%edx
  1025d9:	8b 45 0c             	mov    0xc(%ebp),%eax
  1025dc:	88 55 e4             	mov    %dl,-0x1c(%ebp)
  1025df:	88 45 e0             	mov    %al,-0x20(%ebp)
  1025e2:	c7 04 24 21 00 00 00 	movl   $0x21,(%esp)
  1025e9:	e8 58 e7 ff ff       	call   100d46 <io_inb>
  1025ee:	88 45 f7             	mov    %al,-0x9(%ebp)
  1025f1:	c7 04 24 a1 00 00 00 	movl   $0xa1,(%esp)
  1025f8:	e8 49 e7 ff ff       	call   100d46 <io_inb>
  1025fd:	88 45 f6             	mov    %al,-0xa(%ebp)
  102600:	c7 44 24 04 11 00 00 	movl   $0x11,0x4(%esp)
  102607:	00 
  102608:	c7 04 24 20 00 00 00 	movl   $0x20,(%esp)
  10260f:	e8 14 e7 ff ff       	call   100d28 <io_outb>
  102614:	e8 57 e7 ff ff       	call   100d70 <io_wait>
  102619:	c7 44 24 04 11 00 00 	movl   $0x11,0x4(%esp)
  102620:	00 
  102621:	c7 04 24 a0 00 00 00 	movl   $0xa0,(%esp)
  102628:	e8 fb e6 ff ff       	call   100d28 <io_outb>
  10262d:	e8 3e e7 ff ff       	call   100d70 <io_wait>
  102632:	0f b6 45 e4          	movzbl -0x1c(%ebp),%eax
  102636:	89 44 24 04          	mov    %eax,0x4(%esp)
  10263a:	c7 04 24 21 00 00 00 	movl   $0x21,(%esp)
  102641:	e8 e2 e6 ff ff       	call   100d28 <io_outb>
  102646:	e8 25 e7 ff ff       	call   100d70 <io_wait>
  10264b:	0f b6 45 e0          	movzbl -0x20(%ebp),%eax
  10264f:	89 44 24 04          	mov    %eax,0x4(%esp)
  102653:	c7 04 24 a1 00 00 00 	movl   $0xa1,(%esp)
  10265a:	e8 c9 e6 ff ff       	call   100d28 <io_outb>
  10265f:	e8 0c e7 ff ff       	call   100d70 <io_wait>
  102664:	c7 44 24 04 04 00 00 	movl   $0x4,0x4(%esp)
  10266b:	00 
  10266c:	c7 04 24 21 00 00 00 	movl   $0x21,(%esp)
  102673:	e8 b0 e6 ff ff       	call   100d28 <io_outb>
  102678:	e8 f3 e6 ff ff       	call   100d70 <io_wait>
  10267d:	c7 44 24 04 02 00 00 	movl   $0x2,0x4(%esp)
  102684:	00 
  102685:	c7 04 24 a1 00 00 00 	movl   $0xa1,(%esp)
  10268c:	e8 97 e6 ff ff       	call   100d28 <io_outb>
  102691:	e8 da e6 ff ff       	call   100d70 <io_wait>
  102696:	c7 44 24 04 01 00 00 	movl   $0x1,0x4(%esp)
  10269d:	00 
  10269e:	c7 04 24 21 00 00 00 	movl   $0x21,(%esp)
  1026a5:	e8 7e e6 ff ff       	call   100d28 <io_outb>
  1026aa:	e8 c1 e6 ff ff       	call   100d70 <io_wait>
  1026af:	c7 44 24 04 01 00 00 	movl   $0x1,0x4(%esp)
  1026b6:	00 
  1026b7:	c7 04 24 a1 00 00 00 	movl   $0xa1,(%esp)
  1026be:	e8 65 e6 ff ff       	call   100d28 <io_outb>
  1026c3:	e8 a8 e6 ff ff       	call   100d70 <io_wait>
  1026c8:	0f b6 45 f7          	movzbl -0x9(%ebp),%eax
  1026cc:	89 44 24 04          	mov    %eax,0x4(%esp)
  1026d0:	c7 04 24 21 00 00 00 	movl   $0x21,(%esp)
  1026d7:	e8 4c e6 ff ff       	call   100d28 <io_outb>
  1026dc:	0f b6 45 f6          	movzbl -0xa(%ebp),%eax
  1026e0:	89 44 24 04          	mov    %eax,0x4(%esp)
  1026e4:	c7 04 24 a1 00 00 00 	movl   $0xa1,(%esp)
  1026eb:	e8 38 e6 ff ff       	call   100d28 <io_outb>
  1026f0:	c9                   	leave  
  1026f1:	c3                   	ret    

001026f2 <pic_get_irq_reg>:
  1026f2:	55                   	push   %ebp
  1026f3:	89 e5                	mov    %esp,%ebp
  1026f5:	53                   	push   %ebx
  1026f6:	83 ec 24             	sub    $0x24,%esp
  1026f9:	8b 45 08             	mov    0x8(%ebp),%eax
  1026fc:	88 45 f4             	mov    %al,-0xc(%ebp)
  1026ff:	0f b6 45 f4          	movzbl -0xc(%ebp),%eax
  102703:	89 44 24 04          	mov    %eax,0x4(%esp)
  102707:	c7 04 24 20 00 00 00 	movl   $0x20,(%esp)
  10270e:	e8 15 e6 ff ff       	call   100d28 <io_outb>
  102713:	0f b6 45 f4          	movzbl -0xc(%ebp),%eax
  102717:	89 44 24 04          	mov    %eax,0x4(%esp)
  10271b:	c7 04 24 a0 00 00 00 	movl   $0xa0,(%esp)
  102722:	e8 01 e6 ff ff       	call   100d28 <io_outb>
  102727:	e8 44 e6 ff ff       	call   100d70 <io_wait>
  10272c:	c7 04 24 20 00 00 00 	movl   $0x20,(%esp)
  102733:	e8 0e e6 ff ff       	call   100d46 <io_inb>
  102738:	0f b6 c0             	movzbl %al,%eax
  10273b:	c1 e0 08             	shl    $0x8,%eax
  10273e:	89 c3                	mov    %eax,%ebx
  102740:	c7 04 24 a0 00 00 00 	movl   $0xa0,(%esp)
  102747:	e8 fa e5 ff ff       	call   100d46 <io_inb>
  10274c:	0f b6 c0             	movzbl %al,%eax
  10274f:	09 d8                	or     %ebx,%eax
  102751:	83 c4 24             	add    $0x24,%esp
  102754:	5b                   	pop    %ebx
  102755:	5d                   	pop    %ebp
  102756:	c3                   	ret    

00102757 <sys_pic_irq_get_irr>:
  102757:	55                   	push   %ebp
  102758:	89 e5                	mov    %esp,%ebp
  10275a:	83 ec 18             	sub    $0x18,%esp
  10275d:	c7 04 24 0a 00 00 00 	movl   $0xa,(%esp)
  102764:	e8 89 ff ff ff       	call   1026f2 <pic_get_irq_reg>
  102769:	c9                   	leave  
  10276a:	c3                   	ret    

0010276b <sys_pic_irq_get_isr>:
  10276b:	55                   	push   %ebp
  10276c:	89 e5                	mov    %esp,%ebp
  10276e:	83 ec 18             	sub    $0x18,%esp
  102771:	c7 04 24 0b 00 00 00 	movl   $0xb,(%esp)
  102778:	e8 75 ff ff ff       	call   1026f2 <pic_get_irq_reg>
  10277d:	c9                   	leave  
  10277e:	c3                   	ret    

0010277f <sys_pic_irq_eoi>:
  10277f:	55                   	push   %ebp
  102780:	89 e5                	mov    %esp,%ebp
  102782:	83 ec 28             	sub    $0x28,%esp
  102785:	8b 45 08             	mov    0x8(%ebp),%eax
  102788:	88 45 f4             	mov    %al,-0xc(%ebp)
  10278b:	80 7d f4 07          	cmpb   $0x7,-0xc(%ebp)
  10278f:	76 14                	jbe    1027a5 <sys_pic_irq_eoi+0x26>
  102791:	c7 44 24 04 20 00 00 	movl   $0x20,0x4(%esp)
  102798:	00 
  102799:	c7 04 24 a0 00 00 00 	movl   $0xa0,(%esp)
  1027a0:	e8 83 e5 ff ff       	call   100d28 <io_outb>
  1027a5:	c7 44 24 04 20 00 00 	movl   $0x20,0x4(%esp)
  1027ac:	00 
  1027ad:	c7 04 24 20 00 00 00 	movl   $0x20,(%esp)
  1027b4:	e8 6f e5 ff ff       	call   100d28 <io_outb>
  1027b9:	c9                   	leave  
  1027ba:	c3                   	ret    

001027bb <sys_pic_irq_disable>:
  1027bb:	55                   	push   %ebp
  1027bc:	89 e5                	mov    %esp,%ebp
  1027be:	83 ec 18             	sub    $0x18,%esp
  1027c1:	c7 44 24 04 ff 00 00 	movl   $0xff,0x4(%esp)
  1027c8:	00 
  1027c9:	c7 04 24 21 00 00 00 	movl   $0x21,(%esp)
  1027d0:	e8 53 e5 ff ff       	call   100d28 <io_outb>
  1027d5:	e8 96 e5 ff ff       	call   100d70 <io_wait>
  1027da:	c7 44 24 04 ff 00 00 	movl   $0xff,0x4(%esp)
  1027e1:	00 
  1027e2:	c7 04 24 a1 00 00 00 	movl   $0xa1,(%esp)
  1027e9:	e8 3a e5 ff ff       	call   100d28 <io_outb>
  1027ee:	e8 7d e5 ff ff       	call   100d70 <io_wait>
  1027f3:	c9                   	leave  
  1027f4:	c3                   	ret    
  1027f5:	00 00                	add    %al,(%eax)
	...

001027f8 <sys_pit_init>:
  1027f8:	55                   	push   %ebp
  1027f9:	89 e5                	mov    %esp,%ebp
  1027fb:	83 ec 38             	sub    $0x38,%esp
  1027fe:	8b 55 08             	mov    0x8(%ebp),%edx
  102801:	8b 45 0c             	mov    0xc(%ebp),%eax
  102804:	88 55 e4             	mov    %dl,-0x1c(%ebp)
  102807:	88 45 e0             	mov    %al,-0x20(%ebp)
  10280a:	c6 45 f7 34          	movb   $0x34,-0x9(%ebp)
  10280e:	0f b6 45 e4          	movzbl -0x1c(%ebp),%eax
  102812:	c1 e0 06             	shl    $0x6,%eax
  102815:	89 c2                	mov    %eax,%edx
  102817:	0f b6 45 f7          	movzbl -0x9(%ebp),%eax
  10281b:	09 d0                	or     %edx,%eax
  10281d:	88 45 f7             	mov    %al,-0x9(%ebp)
  102820:	0f b6 45 e0          	movzbl -0x20(%ebp),%eax
  102824:	83 e0 07             	and    $0x7,%eax
  102827:	01 c0                	add    %eax,%eax
  102829:	89 c2                	mov    %eax,%edx
  10282b:	0f b6 45 f7          	movzbl -0x9(%ebp),%eax
  10282f:	09 d0                	or     %edx,%eax
  102831:	88 45 f7             	mov    %al,-0x9(%ebp)
  102834:	0f b6 45 f7          	movzbl -0x9(%ebp),%eax
  102838:	89 44 24 04          	mov    %eax,0x4(%esp)
  10283c:	c7 04 24 43 00 00 00 	movl   $0x43,(%esp)
  102843:	e8 e0 e4 ff ff       	call   100d28 <io_outb>
  102848:	c9                   	leave  
  102849:	c3                   	ret    

0010284a <sys_pit_set_reload>:
  10284a:	55                   	push   %ebp
  10284b:	89 e5                	mov    %esp,%ebp
  10284d:	83 ec 28             	sub    $0x28,%esp
  102850:	8b 55 08             	mov    0x8(%ebp),%edx
  102853:	8b 45 0c             	mov    0xc(%ebp),%eax
  102856:	88 55 f4             	mov    %dl,-0xc(%ebp)
  102859:	66 89 45 f0          	mov    %ax,-0x10(%ebp)
  10285d:	0f b7 45 f0          	movzwl -0x10(%ebp),%eax
  102861:	0f b6 c0             	movzbl %al,%eax
  102864:	89 44 24 04          	mov    %eax,0x4(%esp)
  102868:	c7 04 24 40 00 00 00 	movl   $0x40,(%esp)
  10286f:	e8 b4 e4 ff ff       	call   100d28 <io_outb>
  102874:	c7 44 24 04 00 00 00 	movl   $0x0,0x4(%esp)
  10287b:	00 
  10287c:	c7 04 24 40 00 00 00 	movl   $0x40,(%esp)
  102883:	e8 a0 e4 ff ff       	call   100d28 <io_outb>
  102888:	c9                   	leave  
  102889:	c3                   	ret    
	...

0010288c <strlen>:
  10288c:	55                   	push   %ebp
  10288d:	89 e5                	mov    %esp,%ebp
  10288f:	83 ec 10             	sub    $0x10,%esp
  102892:	c7 45 fc 00 00 00 00 	movl   $0x0,-0x4(%ebp)
  102899:	eb 04                	jmp    10289f <strlen+0x13>
  10289b:	83 45 fc 01          	addl   $0x1,-0x4(%ebp)
  10289f:	8b 45 fc             	mov    -0x4(%ebp),%eax
  1028a2:	8b 55 08             	mov    0x8(%ebp),%edx
  1028a5:	01 d0                	add    %edx,%eax
  1028a7:	0f b6 00             	movzbl (%eax),%eax
  1028aa:	84 c0                	test   %al,%al
  1028ac:	75 ed                	jne    10289b <strlen+0xf>
  1028ae:	8b 45 fc             	mov    -0x4(%ebp),%eax
  1028b1:	c9                   	leave  
  1028b2:	c3                   	ret    

001028b3 <memchr>:
  1028b3:	55                   	push   %ebp
  1028b4:	89 e5                	mov    %esp,%ebp
  1028b6:	83 ec 14             	sub    $0x14,%esp
  1028b9:	8b 45 0c             	mov    0xc(%ebp),%eax
  1028bc:	88 45 ec             	mov    %al,-0x14(%ebp)
  1028bf:	8b 45 08             	mov    0x8(%ebp),%eax
  1028c2:	89 45 f8             	mov    %eax,-0x8(%ebp)
  1028c5:	c7 45 fc 00 00 00 00 	movl   $0x0,-0x4(%ebp)
  1028cc:	eb 1a                	jmp    1028e8 <memchr+0x35>
  1028ce:	8b 45 fc             	mov    -0x4(%ebp),%eax
  1028d1:	03 45 f8             	add    -0x8(%ebp),%eax
  1028d4:	0f b6 00             	movzbl (%eax),%eax
  1028d7:	3a 45 ec             	cmp    -0x14(%ebp),%al
  1028da:	75 08                	jne    1028e4 <memchr+0x31>
  1028dc:	8b 45 fc             	mov    -0x4(%ebp),%eax
  1028df:	03 45 f8             	add    -0x8(%ebp),%eax
  1028e2:	eb 11                	jmp    1028f5 <memchr+0x42>
  1028e4:	83 45 fc 01          	addl   $0x1,-0x4(%ebp)
  1028e8:	8b 45 fc             	mov    -0x4(%ebp),%eax
  1028eb:	3b 45 10             	cmp    0x10(%ebp),%eax
  1028ee:	72 de                	jb     1028ce <memchr+0x1b>
  1028f0:	b8 00 00 00 00       	mov    $0x0,%eax
  1028f5:	c9                   	leave  
  1028f6:	c3                   	ret    

001028f7 <memcmp>:
  1028f7:	55                   	push   %ebp
  1028f8:	89 e5                	mov    %esp,%ebp
  1028fa:	83 ec 10             	sub    $0x10,%esp
  1028fd:	8b 45 08             	mov    0x8(%ebp),%eax
  102900:	89 45 f8             	mov    %eax,-0x8(%ebp)
  102903:	8b 45 0c             	mov    0xc(%ebp),%eax
  102906:	89 45 f4             	mov    %eax,-0xc(%ebp)
  102909:	c7 45 fc 00 00 00 00 	movl   $0x0,-0x4(%ebp)
  102910:	eb 3e                	jmp    102950 <memcmp+0x59>
  102912:	8b 45 fc             	mov    -0x4(%ebp),%eax
  102915:	03 45 f8             	add    -0x8(%ebp),%eax
  102918:	0f b6 10             	movzbl (%eax),%edx
  10291b:	8b 45 fc             	mov    -0x4(%ebp),%eax
  10291e:	03 45 f4             	add    -0xc(%ebp),%eax
  102921:	0f b6 00             	movzbl (%eax),%eax
  102924:	38 c2                	cmp    %al,%dl
  102926:	74 24                	je     10294c <memcmp+0x55>
  102928:	8b 45 fc             	mov    -0x4(%ebp),%eax
  10292b:	03 45 f8             	add    -0x8(%ebp),%eax
  10292e:	0f b6 10             	movzbl (%eax),%edx
  102931:	8b 45 fc             	mov    -0x4(%ebp),%eax
  102934:	03 45 f4             	add    -0xc(%ebp),%eax
  102937:	0f b6 00             	movzbl (%eax),%eax
  10293a:	38 c2                	cmp    %al,%dl
  10293c:	76 07                	jbe    102945 <memcmp+0x4e>
  10293e:	b8 01 00 00 00       	mov    $0x1,%eax
  102943:	eb 18                	jmp    10295d <memcmp+0x66>
  102945:	b8 ff ff ff ff       	mov    $0xffffffff,%eax
  10294a:	eb 11                	jmp    10295d <memcmp+0x66>
  10294c:	83 45 fc 01          	addl   $0x1,-0x4(%ebp)
  102950:	8b 45 fc             	mov    -0x4(%ebp),%eax
  102953:	3b 45 10             	cmp    0x10(%ebp),%eax
  102956:	72 ba                	jb     102912 <memcmp+0x1b>
  102958:	b8 00 00 00 00       	mov    $0x0,%eax
  10295d:	c9                   	leave  
  10295e:	c3                   	ret    

0010295f <memcpy>:
  10295f:	55                   	push   %ebp
  102960:	89 e5                	mov    %esp,%ebp
  102962:	83 ec 10             	sub    $0x10,%esp
  102965:	8b 45 08             	mov    0x8(%ebp),%eax
  102968:	89 45 f8             	mov    %eax,-0x8(%ebp)
  10296b:	8b 45 0c             	mov    0xc(%ebp),%eax
  10296e:	89 45 f4             	mov    %eax,-0xc(%ebp)
  102971:	c7 45 fc 00 00 00 00 	movl   $0x0,-0x4(%ebp)
  102978:	eb 15                	jmp    10298f <memcpy+0x30>
  10297a:	8b 45 fc             	mov    -0x4(%ebp),%eax
  10297d:	03 45 f8             	add    -0x8(%ebp),%eax
  102980:	8b 55 fc             	mov    -0x4(%ebp),%edx
  102983:	03 55 f4             	add    -0xc(%ebp),%edx
  102986:	0f b6 12             	movzbl (%edx),%edx
  102989:	88 10                	mov    %dl,(%eax)
  10298b:	83 45 fc 01          	addl   $0x1,-0x4(%ebp)
  10298f:	8b 45 fc             	mov    -0x4(%ebp),%eax
  102992:	3b 45 10             	cmp    0x10(%ebp),%eax
  102995:	72 e3                	jb     10297a <memcpy+0x1b>
  102997:	8b 45 08             	mov    0x8(%ebp),%eax
  10299a:	c9                   	leave  
  10299b:	c3                   	ret    

0010299c <memset>:
  10299c:	55                   	push   %ebp
  10299d:	89 e5                	mov    %esp,%ebp
  10299f:	83 ec 14             	sub    $0x14,%esp
  1029a2:	8b 45 0c             	mov    0xc(%ebp),%eax
  1029a5:	88 45 ec             	mov    %al,-0x14(%ebp)
  1029a8:	8b 45 08             	mov    0x8(%ebp),%eax
  1029ab:	89 45 f8             	mov    %eax,-0x8(%ebp)
  1029ae:	c7 45 fc 00 00 00 00 	movl   $0x0,-0x4(%ebp)
  1029b5:	eb 10                	jmp    1029c7 <memset+0x2b>
  1029b7:	8b 45 fc             	mov    -0x4(%ebp),%eax
  1029ba:	03 45 f8             	add    -0x8(%ebp),%eax
  1029bd:	0f b6 55 ec          	movzbl -0x14(%ebp),%edx
  1029c1:	88 10                	mov    %dl,(%eax)
  1029c3:	83 45 fc 01          	addl   $0x1,-0x4(%ebp)
  1029c7:	8b 45 fc             	mov    -0x4(%ebp),%eax
  1029ca:	3b 45 10             	cmp    0x10(%ebp),%eax
  1029cd:	72 e8                	jb     1029b7 <memset+0x1b>
  1029cf:	8b 45 08             	mov    0x8(%ebp),%eax
  1029d2:	c9                   	leave  
  1029d3:	c3                   	ret    

001029d4 <malloc>:
  1029d4:	55                   	push   %ebp
  1029d5:	89 e5                	mov    %esp,%ebp
  1029d7:	83 ec 18             	sub    $0x18,%esp
  1029da:	c7 44 24 08 00 00 00 	movl   $0x0,0x8(%esp)
  1029e1:	00 
  1029e2:	c7 44 24 04 00 00 00 	movl   $0x0,0x4(%esp)
  1029e9:	00 
  1029ea:	8b 45 08             	mov    0x8(%ebp),%eax
  1029ed:	89 04 24             	mov    %eax,(%esp)
  1029f0:	e8 63 e4 ff ff       	call   100e58 <kmalloc_int>
  1029f5:	c9                   	leave  
  1029f6:	c3                   	ret    
	...

001029f8 <system_init>:
  1029f8:	55                   	push   %ebp
  1029f9:	89 e5                	mov    %esp,%ebp
  1029fb:	57                   	push   %edi
  1029fc:	56                   	push   %esi
  1029fd:	53                   	push   %ebx
  1029fe:	83 ec 3c             	sub    $0x3c,%esp
  102a01:	e8 a7 04 00 00       	call   102ead <sys_build_gdt>
  102a06:	e8 69 00 00 00       	call   102a74 <sys_build_idt>
  102a0b:	e8 c2 03 00 00       	call   102dd2 <sys_setup_ints>
  102a10:	c7 45 c0 01 00 00 00 	movl   $0x1,-0x40(%ebp)
  102a17:	8b 45 c0             	mov    -0x40(%ebp),%eax
  102a1a:	0f a2                	cpuid  
  102a1c:	89 d6                	mov    %edx,%esi
  102a1e:	89 cf                	mov    %ecx,%edi
  102a20:	89 45 c4             	mov    %eax,-0x3c(%ebp)
  102a23:	8b 45 c4             	mov    -0x3c(%ebp),%eax
  102a26:	89 45 e4             	mov    %eax,-0x1c(%ebp)
  102a29:	89 5d e0             	mov    %ebx,-0x20(%ebp)
  102a2c:	89 7d dc             	mov    %edi,-0x24(%ebp)
  102a2f:	89 75 d8             	mov    %esi,-0x28(%ebp)
  102a32:	8b 45 d8             	mov    -0x28(%ebp),%eax
  102a35:	25 00 00 00 02       	and    $0x2000000,%eax
  102a3a:	85 c0                	test   %eax,%eax
  102a3c:	74 2e                	je     102a6c <system_init+0x74>
  102a3e:	0f 20 c3             	mov    %cr0,%ebx
  102a41:	89 5d d4             	mov    %ebx,-0x2c(%ebp)
  102a44:	83 65 d4 fb          	andl   $0xfffffffb,-0x2c(%ebp)
  102a48:	83 4d d4 02          	orl    $0x2,-0x2c(%ebp)
  102a4c:	0f 22 c3             	mov    %ebx,%cr0
  102a4f:	89 5d d4             	mov    %ebx,-0x2c(%ebp)
  102a52:	0f 20 e3             	mov    %cr4,%ebx
  102a55:	89 5d d0             	mov    %ebx,-0x30(%ebp)
  102a58:	81 4d d0 00 02 00 00 	orl    $0x200,-0x30(%ebp)
  102a5f:	81 4d d0 00 04 00 00 	orl    $0x400,-0x30(%ebp)
  102a66:	0f 22 e3             	mov    %ebx,%cr4
  102a69:	89 5d d0             	mov    %ebx,-0x30(%ebp)
  102a6c:	83 c4 3c             	add    $0x3c,%esp
  102a6f:	5b                   	pop    %ebx
  102a70:	5e                   	pop    %esi
  102a71:	5f                   	pop    %edi
  102a72:	5d                   	pop    %ebp
  102a73:	c3                   	ret    

00102a74 <sys_build_idt>:
  102a74:	55                   	push   %ebp
  102a75:	89 e5                	mov    %esp,%ebp
  102a77:	83 ec 28             	sub    $0x28,%esp
  102a7a:	c7 45 f0 00 00 55 00 	movl   $0x550000,-0x10(%ebp)
  102a81:	c7 44 24 08 00 08 00 	movl   $0x800,0x8(%esp)
  102a88:	00 
  102a89:	c7 44 24 04 00 00 00 	movl   $0x0,0x4(%esp)
  102a90:	00 
  102a91:	8b 45 f0             	mov    -0x10(%ebp),%eax
  102a94:	89 04 24             	mov    %eax,(%esp)
  102a97:	e8 00 ff ff ff       	call   10299c <memset>
  102a9c:	c7 45 f4 00 00 00 00 	movl   $0x0,-0xc(%ebp)
  102aa3:	eb 2b                	jmp    102ad0 <sys_build_idt+0x5c>
  102aa5:	ba 80 0d 10 00       	mov    $0x100d80,%edx
  102aaa:	8b 45 f4             	mov    -0xc(%ebp),%eax
  102aad:	0f b6 c0             	movzbl %al,%eax
  102ab0:	c7 44 24 0c 8e 00 00 	movl   $0x8e,0xc(%esp)
  102ab7:	00 
  102ab8:	c7 44 24 08 08 00 00 	movl   $0x8,0x8(%esp)
  102abf:	00 
  102ac0:	89 54 24 04          	mov    %edx,0x4(%esp)
  102ac4:	89 04 24             	mov    %eax,(%esp)
  102ac7:	e8 6b 03 00 00       	call   102e37 <sys_set_idt_gate>
  102acc:	83 45 f4 01          	addl   $0x1,-0xc(%ebp)
  102ad0:	81 7d f4 ff 00 00 00 	cmpl   $0xff,-0xc(%ebp)
  102ad7:	7e cc                	jle    102aa5 <sys_build_idt+0x31>
  102ad9:	b8 90 0d 10 00       	mov    $0x100d90,%eax
  102ade:	c7 44 24 0c 8e 00 00 	movl   $0x8e,0xc(%esp)
  102ae5:	00 
  102ae6:	c7 44 24 08 08 00 00 	movl   $0x8,0x8(%esp)
  102aed:	00 
  102aee:	89 44 24 04          	mov    %eax,0x4(%esp)
  102af2:	c7 04 24 20 00 00 00 	movl   $0x20,(%esp)
  102af9:	e8 39 03 00 00       	call   102e37 <sys_set_idt_gate>
  102afe:	b8 b0 0d 10 00       	mov    $0x100db0,%eax
  102b03:	c7 44 24 0c 8e 00 00 	movl   $0x8e,0xc(%esp)
  102b0a:	00 
  102b0b:	c7 44 24 08 08 00 00 	movl   $0x8,0x8(%esp)
  102b12:	00 
  102b13:	89 44 24 04          	mov    %eax,0x4(%esp)
  102b17:	c7 04 24 00 00 00 00 	movl   $0x0,(%esp)
  102b1e:	e8 14 03 00 00       	call   102e37 <sys_set_idt_gate>
  102b23:	b8 b7 0d 10 00       	mov    $0x100db7,%eax
  102b28:	c7 44 24 0c 8e 00 00 	movl   $0x8e,0xc(%esp)
  102b2f:	00 
  102b30:	c7 44 24 08 08 00 00 	movl   $0x8,0x8(%esp)
  102b37:	00 
  102b38:	89 44 24 04          	mov    %eax,0x4(%esp)
  102b3c:	c7 04 24 01 00 00 00 	movl   $0x1,(%esp)
  102b43:	e8 ef 02 00 00       	call   102e37 <sys_set_idt_gate>
  102b48:	b8 be 0d 10 00       	mov    $0x100dbe,%eax
  102b4d:	c7 44 24 0c 8e 00 00 	movl   $0x8e,0xc(%esp)
  102b54:	00 
  102b55:	c7 44 24 08 08 00 00 	movl   $0x8,0x8(%esp)
  102b5c:	00 
  102b5d:	89 44 24 04          	mov    %eax,0x4(%esp)
  102b61:	c7 04 24 02 00 00 00 	movl   $0x2,(%esp)
  102b68:	e8 ca 02 00 00       	call   102e37 <sys_set_idt_gate>
  102b6d:	b8 c5 0d 10 00       	mov    $0x100dc5,%eax
  102b72:	c7 44 24 0c 8e 00 00 	movl   $0x8e,0xc(%esp)
  102b79:	00 
  102b7a:	c7 44 24 08 08 00 00 	movl   $0x8,0x8(%esp)
  102b81:	00 
  102b82:	89 44 24 04          	mov    %eax,0x4(%esp)
  102b86:	c7 04 24 03 00 00 00 	movl   $0x3,(%esp)
  102b8d:	e8 a5 02 00 00       	call   102e37 <sys_set_idt_gate>
  102b92:	b8 cc 0d 10 00       	mov    $0x100dcc,%eax
  102b97:	c7 44 24 0c 8e 00 00 	movl   $0x8e,0xc(%esp)
  102b9e:	00 
  102b9f:	c7 44 24 08 08 00 00 	movl   $0x8,0x8(%esp)
  102ba6:	00 
  102ba7:	89 44 24 04          	mov    %eax,0x4(%esp)
  102bab:	c7 04 24 04 00 00 00 	movl   $0x4,(%esp)
  102bb2:	e8 80 02 00 00       	call   102e37 <sys_set_idt_gate>
  102bb7:	b8 d3 0d 10 00       	mov    $0x100dd3,%eax
  102bbc:	c7 44 24 0c 8e 00 00 	movl   $0x8e,0xc(%esp)
  102bc3:	00 
  102bc4:	c7 44 24 08 08 00 00 	movl   $0x8,0x8(%esp)
  102bcb:	00 
  102bcc:	89 44 24 04          	mov    %eax,0x4(%esp)
  102bd0:	c7 04 24 05 00 00 00 	movl   $0x5,(%esp)
  102bd7:	e8 5b 02 00 00       	call   102e37 <sys_set_idt_gate>
  102bdc:	b8 da 0d 10 00       	mov    $0x100dda,%eax
  102be1:	c7 44 24 0c 8e 00 00 	movl   $0x8e,0xc(%esp)
  102be8:	00 
  102be9:	c7 44 24 08 08 00 00 	movl   $0x8,0x8(%esp)
  102bf0:	00 
  102bf1:	89 44 24 04          	mov    %eax,0x4(%esp)
  102bf5:	c7 04 24 06 00 00 00 	movl   $0x6,(%esp)
  102bfc:	e8 36 02 00 00       	call   102e37 <sys_set_idt_gate>
  102c01:	b8 e1 0d 10 00       	mov    $0x100de1,%eax
  102c06:	c7 44 24 0c 8e 00 00 	movl   $0x8e,0xc(%esp)
  102c0d:	00 
  102c0e:	c7 44 24 08 08 00 00 	movl   $0x8,0x8(%esp)
  102c15:	00 
  102c16:	89 44 24 04          	mov    %eax,0x4(%esp)
  102c1a:	c7 04 24 07 00 00 00 	movl   $0x7,(%esp)
  102c21:	e8 11 02 00 00       	call   102e37 <sys_set_idt_gate>
  102c26:	b8 e8 0d 10 00       	mov    $0x100de8,%eax
  102c2b:	c7 44 24 0c 8e 00 00 	movl   $0x8e,0xc(%esp)
  102c32:	00 
  102c33:	c7 44 24 08 08 00 00 	movl   $0x8,0x8(%esp)
  102c3a:	00 
  102c3b:	89 44 24 04          	mov    %eax,0x4(%esp)
  102c3f:	c7 04 24 08 00 00 00 	movl   $0x8,(%esp)
  102c46:	e8 ec 01 00 00       	call   102e37 <sys_set_idt_gate>
  102c4b:	b8 ed 0d 10 00       	mov    $0x100ded,%eax
  102c50:	c7 44 24 0c 8e 00 00 	movl   $0x8e,0xc(%esp)
  102c57:	00 
  102c58:	c7 44 24 08 08 00 00 	movl   $0x8,0x8(%esp)
  102c5f:	00 
  102c60:	89 44 24 04          	mov    %eax,0x4(%esp)
  102c64:	c7 04 24 09 00 00 00 	movl   $0x9,(%esp)
  102c6b:	e8 c7 01 00 00       	call   102e37 <sys_set_idt_gate>
  102c70:	b8 f4 0d 10 00       	mov    $0x100df4,%eax
  102c75:	c7 44 24 0c 8e 00 00 	movl   $0x8e,0xc(%esp)
  102c7c:	00 
  102c7d:	c7 44 24 08 08 00 00 	movl   $0x8,0x8(%esp)
  102c84:	00 
  102c85:	89 44 24 04          	mov    %eax,0x4(%esp)
  102c89:	c7 04 24 0a 00 00 00 	movl   $0xa,(%esp)
  102c90:	e8 a2 01 00 00       	call   102e37 <sys_set_idt_gate>
  102c95:	b8 f9 0d 10 00       	mov    $0x100df9,%eax
  102c9a:	c7 44 24 0c 8e 00 00 	movl   $0x8e,0xc(%esp)
  102ca1:	00 
  102ca2:	c7 44 24 08 08 00 00 	movl   $0x8,0x8(%esp)
  102ca9:	00 
  102caa:	89 44 24 04          	mov    %eax,0x4(%esp)
  102cae:	c7 04 24 0b 00 00 00 	movl   $0xb,(%esp)
  102cb5:	e8 7d 01 00 00       	call   102e37 <sys_set_idt_gate>
  102cba:	b8 fe 0d 10 00       	mov    $0x100dfe,%eax
  102cbf:	c7 44 24 0c 8e 00 00 	movl   $0x8e,0xc(%esp)
  102cc6:	00 
  102cc7:	c7 44 24 08 08 00 00 	movl   $0x8,0x8(%esp)
  102cce:	00 
  102ccf:	89 44 24 04          	mov    %eax,0x4(%esp)
  102cd3:	c7 04 24 0c 00 00 00 	movl   $0xc,(%esp)
  102cda:	e8 58 01 00 00       	call   102e37 <sys_set_idt_gate>
  102cdf:	b8 03 0e 10 00       	mov    $0x100e03,%eax
  102ce4:	c7 44 24 0c 8e 00 00 	movl   $0x8e,0xc(%esp)
  102ceb:	00 
  102cec:	c7 44 24 08 08 00 00 	movl   $0x8,0x8(%esp)
  102cf3:	00 
  102cf4:	89 44 24 04          	mov    %eax,0x4(%esp)
  102cf8:	c7 04 24 0d 00 00 00 	movl   $0xd,(%esp)
  102cff:	e8 33 01 00 00       	call   102e37 <sys_set_idt_gate>
  102d04:	b8 0d 0e 10 00       	mov    $0x100e0d,%eax
  102d09:	c7 44 24 0c 8e 00 00 	movl   $0x8e,0xc(%esp)
  102d10:	00 
  102d11:	c7 44 24 08 08 00 00 	movl   $0x8,0x8(%esp)
  102d18:	00 
  102d19:	89 44 24 04          	mov    %eax,0x4(%esp)
  102d1d:	c7 04 24 0f 00 00 00 	movl   $0xf,(%esp)
  102d24:	e8 0e 01 00 00       	call   102e37 <sys_set_idt_gate>
  102d29:	b8 14 0e 10 00       	mov    $0x100e14,%eax
  102d2e:	c7 44 24 0c 8e 00 00 	movl   $0x8e,0xc(%esp)
  102d35:	00 
  102d36:	c7 44 24 08 08 00 00 	movl   $0x8,0x8(%esp)
  102d3d:	00 
  102d3e:	89 44 24 04          	mov    %eax,0x4(%esp)
  102d42:	c7 04 24 10 00 00 00 	movl   $0x10,(%esp)
  102d49:	e8 e9 00 00 00       	call   102e37 <sys_set_idt_gate>
  102d4e:	b8 1b 0e 10 00       	mov    $0x100e1b,%eax
  102d53:	c7 44 24 0c 8e 00 00 	movl   $0x8e,0xc(%esp)
  102d5a:	00 
  102d5b:	c7 44 24 08 08 00 00 	movl   $0x8,0x8(%esp)
  102d62:	00 
  102d63:	89 44 24 04          	mov    %eax,0x4(%esp)
  102d67:	c7 04 24 11 00 00 00 	movl   $0x11,(%esp)
  102d6e:	e8 c4 00 00 00       	call   102e37 <sys_set_idt_gate>
  102d73:	b8 22 0e 10 00       	mov    $0x100e22,%eax
  102d78:	c7 44 24 0c 8e 00 00 	movl   $0x8e,0xc(%esp)
  102d7f:	00 
  102d80:	c7 44 24 08 08 00 00 	movl   $0x8,0x8(%esp)
  102d87:	00 
  102d88:	89 44 24 04          	mov    %eax,0x4(%esp)
  102d8c:	c7 04 24 12 00 00 00 	movl   $0x12,(%esp)
  102d93:	e8 9f 00 00 00       	call   102e37 <sys_set_idt_gate>
  102d98:	b8 08 0e 10 00       	mov    $0x100e08,%eax
  102d9d:	c7 44 24 0c 8e 00 00 	movl   $0x8e,0xc(%esp)
  102da4:	00 
  102da5:	c7 44 24 08 08 00 00 	movl   $0x8,0x8(%esp)
  102dac:	00 
  102dad:	89 44 24 04          	mov    %eax,0x4(%esp)
  102db1:	c7 04 24 0e 00 00 00 	movl   $0xe,(%esp)
  102db8:	e8 7a 00 00 00       	call   102e37 <sys_set_idt_gate>
  102dbd:	c7 44 24 04 00 08 00 	movl   $0x800,0x4(%esp)
  102dc4:	00 
  102dc5:	8b 45 f0             	mov    -0x10(%ebp),%eax
  102dc8:	89 04 24             	mov    %eax,(%esp)
  102dcb:	e8 dd 02 00 00       	call   1030ad <sys_set_lidt>
  102dd0:	c9                   	leave  
  102dd1:	c3                   	ret    

00102dd2 <sys_setup_ints>:
  102dd2:	55                   	push   %ebp
  102dd3:	89 e5                	mov    %esp,%ebp
  102dd5:	83 ec 18             	sub    $0x18,%esp
  102dd8:	c7 44 24 04 28 00 00 	movl   $0x28,0x4(%esp)
  102ddf:	00 
  102de0:	c7 04 24 20 00 00 00 	movl   $0x20,(%esp)
  102de7:	e8 e4 f7 ff ff       	call   1025d0 <sys_pic_irq_remap>
  102dec:	c7 04 24 00 00 00 00 	movl   $0x0,(%esp)
  102df3:	e8 71 f7 ff ff       	call   102569 <sys_pic_irq_clear_mask>
  102df8:	c7 44 24 04 00 00 00 	movl   $0x0,0x4(%esp)
  102dff:	00 
  102e00:	c7 04 24 00 00 00 00 	movl   $0x0,(%esp)
  102e07:	e8 ec f9 ff ff       	call   1027f8 <sys_pit_init>
  102e0c:	c7 44 24 04 78 00 00 	movl   $0x78,0x4(%esp)
  102e13:	00 
  102e14:	c7 04 24 00 00 00 00 	movl   $0x0,(%esp)
  102e1b:	e8 2a fa ff ff       	call   10284a <sys_pit_set_reload>
  102e20:	c7 05 30 70 10 00 00 	movl   $0x0,0x107030
  102e27:	00 00 00 
  102e2a:	c7 05 34 70 10 00 00 	movl   $0x0,0x107034
  102e31:	00 00 00 
  102e34:	fb                   	sti    
  102e35:	c9                   	leave  
  102e36:	c3                   	ret    

00102e37 <sys_set_idt_gate>:
  102e37:	55                   	push   %ebp
  102e38:	89 e5                	mov    %esp,%ebp
  102e3a:	83 ec 1c             	sub    $0x1c,%esp
  102e3d:	8b 4d 08             	mov    0x8(%ebp),%ecx
  102e40:	8b 55 10             	mov    0x10(%ebp),%edx
  102e43:	8b 45 14             	mov    0x14(%ebp),%eax
  102e46:	88 4d ec             	mov    %cl,-0x14(%ebp)
  102e49:	88 55 e8             	mov    %dl,-0x18(%ebp)
  102e4c:	88 45 e4             	mov    %al,-0x1c(%ebp)
  102e4f:	c7 45 fc 00 00 55 00 	movl   $0x550000,-0x4(%ebp)
  102e56:	0f b6 45 ec          	movzbl -0x14(%ebp),%eax
  102e5a:	c1 e0 03             	shl    $0x3,%eax
  102e5d:	03 45 fc             	add    -0x4(%ebp),%eax
  102e60:	8b 55 0c             	mov    0xc(%ebp),%edx
  102e63:	66 89 10             	mov    %dx,(%eax)
  102e66:	0f b6 45 ec          	movzbl -0x14(%ebp),%eax
  102e6a:	c1 e0 03             	shl    $0x3,%eax
  102e6d:	03 45 fc             	add    -0x4(%ebp),%eax
  102e70:	8b 55 0c             	mov    0xc(%ebp),%edx
  102e73:	c1 ea 10             	shr    $0x10,%edx
  102e76:	66 89 50 06          	mov    %dx,0x6(%eax)
  102e7a:	0f b6 45 ec          	movzbl -0x14(%ebp),%eax
  102e7e:	c1 e0 03             	shl    $0x3,%eax
  102e81:	03 45 fc             	add    -0x4(%ebp),%eax
  102e84:	0f b6 55 e8          	movzbl -0x18(%ebp),%edx
  102e88:	66 89 50 02          	mov    %dx,0x2(%eax)
  102e8c:	0f b6 45 ec          	movzbl -0x14(%ebp),%eax
  102e90:	c1 e0 03             	shl    $0x3,%eax
  102e93:	03 45 fc             	add    -0x4(%ebp),%eax
  102e96:	0f b6 55 e4          	movzbl -0x1c(%ebp),%edx
  102e9a:	88 50 05             	mov    %dl,0x5(%eax)
  102e9d:	0f b6 45 ec          	movzbl -0x14(%ebp),%eax
  102ea1:	c1 e0 03             	shl    $0x3,%eax
  102ea4:	03 45 fc             	add    -0x4(%ebp),%eax
  102ea7:	c6 40 04 00          	movb   $0x0,0x4(%eax)
  102eab:	c9                   	leave  
  102eac:	c3                   	ret    

00102ead <sys_build_gdt>:
  102ead:	55                   	push   %ebp
  102eae:	89 e5                	mov    %esp,%ebp
  102eb0:	83 ec 38             	sub    $0x38,%esp
  102eb3:	c7 45 f0 00 00 56 00 	movl   $0x560000,-0x10(%ebp)
  102eba:	c7 44 24 08 08 00 00 	movl   $0x8,0x8(%esp)
  102ec1:	00 
  102ec2:	c7 44 24 04 00 00 00 	movl   $0x0,0x4(%esp)
  102ec9:	00 
  102eca:	8b 45 f0             	mov    -0x10(%ebp),%eax
  102ecd:	89 04 24             	mov    %eax,(%esp)
  102ed0:	e8 c7 fa ff ff       	call   10299c <memset>
  102ed5:	c7 44 24 10 cf 00 00 	movl   $0xcf,0x10(%esp)
  102edc:	00 
  102edd:	c7 44 24 0c 9a 00 00 	movl   $0x9a,0xc(%esp)
  102ee4:	00 
  102ee5:	c7 44 24 08 ff ff ff 	movl   $0xffffffff,0x8(%esp)
  102eec:	ff 
  102eed:	c7 44 24 04 00 00 00 	movl   $0x0,0x4(%esp)
  102ef4:	00 
  102ef5:	c7 04 24 01 00 00 00 	movl   $0x1,(%esp)
  102efc:	e8 de 00 00 00       	call   102fdf <sys_set_gdt_gate>
  102f01:	c7 44 24 10 cf 00 00 	movl   $0xcf,0x10(%esp)
  102f08:	00 
  102f09:	c7 44 24 0c 92 00 00 	movl   $0x92,0xc(%esp)
  102f10:	00 
  102f11:	c7 44 24 08 ff ff ff 	movl   $0xffffffff,0x8(%esp)
  102f18:	ff 
  102f19:	c7 44 24 04 00 00 00 	movl   $0x0,0x4(%esp)
  102f20:	00 
  102f21:	c7 04 24 02 00 00 00 	movl   $0x2,(%esp)
  102f28:	e8 b2 00 00 00       	call   102fdf <sys_set_gdt_gate>
  102f2d:	c7 44 24 10 cf 00 00 	movl   $0xcf,0x10(%esp)
  102f34:	00 
  102f35:	c7 44 24 0c fa 00 00 	movl   $0xfa,0xc(%esp)
  102f3c:	00 
  102f3d:	c7 44 24 08 ff ff ff 	movl   $0xffffffff,0x8(%esp)
  102f44:	ff 
  102f45:	c7 44 24 04 00 00 00 	movl   $0x0,0x4(%esp)
  102f4c:	00 
  102f4d:	c7 04 24 03 00 00 00 	movl   $0x3,(%esp)
  102f54:	e8 86 00 00 00       	call   102fdf <sys_set_gdt_gate>
  102f59:	c7 44 24 10 cf 00 00 	movl   $0xcf,0x10(%esp)
  102f60:	00 
  102f61:	c7 44 24 0c f2 00 00 	movl   $0xf2,0xc(%esp)
  102f68:	00 
  102f69:	c7 44 24 08 ff ff ff 	movl   $0xffffffff,0x8(%esp)
  102f70:	ff 
  102f71:	c7 44 24 04 00 00 00 	movl   $0x0,0x4(%esp)
  102f78:	00 
  102f79:	c7 04 24 04 00 00 00 	movl   $0x4,(%esp)
  102f80:	e8 5a 00 00 00       	call   102fdf <sys_set_gdt_gate>
  102f85:	c7 45 f4 00 00 00 00 	movl   $0x0,-0xc(%ebp)
  102f8c:	eb 3e                	jmp    102fcc <sys_build_gdt+0x11f>
  102f8e:	8b 45 f4             	mov    -0xc(%ebp),%eax
  102f91:	05 00 ae 00 00       	add    $0xae00,%eax
  102f96:	c1 e0 07             	shl    $0x7,%eax
  102f99:	89 c2                	mov    %eax,%edx
  102f9b:	8b 45 f4             	mov    -0xc(%ebp),%eax
  102f9e:	83 c0 05             	add    $0x5,%eax
  102fa1:	0f b7 c0             	movzwl %ax,%eax
  102fa4:	c7 44 24 10 4f 00 00 	movl   $0x4f,0x10(%esp)
  102fab:	00 
  102fac:	c7 44 24 0c 89 00 00 	movl   $0x89,0xc(%esp)
  102fb3:	00 
  102fb4:	c7 44 24 08 80 00 00 	movl   $0x80,0x8(%esp)
  102fbb:	00 
  102fbc:	89 54 24 04          	mov    %edx,0x4(%esp)
  102fc0:	89 04 24             	mov    %eax,(%esp)
  102fc3:	e8 17 00 00 00       	call   102fdf <sys_set_gdt_gate>
  102fc8:	83 45 f4 01          	addl   $0x1,-0xc(%ebp)
  102fcc:	83 7d f4 07          	cmpl   $0x7,-0xc(%ebp)
  102fd0:	7e bc                	jle    102f8e <sys_build_gdt+0xe1>
  102fd2:	8b 45 f0             	mov    -0x10(%ebp),%eax
  102fd5:	89 04 24             	mov    %eax,(%esp)
  102fd8:	e8 b6 00 00 00       	call   103093 <sys_install_gdt>
  102fdd:	c9                   	leave  
  102fde:	c3                   	ret    

00102fdf <sys_set_gdt_gate>:
  102fdf:	55                   	push   %ebp
  102fe0:	89 e5                	mov    %esp,%ebp
  102fe2:	83 ec 1c             	sub    $0x1c,%esp
  102fe5:	8b 4d 08             	mov    0x8(%ebp),%ecx
  102fe8:	8b 55 14             	mov    0x14(%ebp),%edx
  102feb:	8b 45 18             	mov    0x18(%ebp),%eax
  102fee:	66 89 4d ec          	mov    %cx,-0x14(%ebp)
  102ff2:	88 55 e8             	mov    %dl,-0x18(%ebp)
  102ff5:	88 45 e4             	mov    %al,-0x1c(%ebp)
  102ff8:	c7 45 fc 00 00 56 00 	movl   $0x560000,-0x4(%ebp)
  102fff:	0f b7 45 ec          	movzwl -0x14(%ebp),%eax
  103003:	c1 e0 03             	shl    $0x3,%eax
  103006:	03 45 fc             	add    -0x4(%ebp),%eax
  103009:	8b 55 0c             	mov    0xc(%ebp),%edx
  10300c:	66 89 50 02          	mov    %dx,0x2(%eax)
  103010:	0f b7 45 ec          	movzwl -0x14(%ebp),%eax
  103014:	c1 e0 03             	shl    $0x3,%eax
  103017:	03 45 fc             	add    -0x4(%ebp),%eax
  10301a:	8b 55 0c             	mov    0xc(%ebp),%edx
  10301d:	c1 ea 10             	shr    $0x10,%edx
  103020:	88 50 04             	mov    %dl,0x4(%eax)
  103023:	0f b7 45 ec          	movzwl -0x14(%ebp),%eax
  103027:	c1 e0 03             	shl    $0x3,%eax
  10302a:	03 45 fc             	add    -0x4(%ebp),%eax
  10302d:	8b 55 0c             	mov    0xc(%ebp),%edx
  103030:	c1 ea 18             	shr    $0x18,%edx
  103033:	88 50 07             	mov    %dl,0x7(%eax)
  103036:	0f b7 45 ec          	movzwl -0x14(%ebp),%eax
  10303a:	c1 e0 03             	shl    $0x3,%eax
  10303d:	03 45 fc             	add    -0x4(%ebp),%eax
  103040:	8b 55 10             	mov    0x10(%ebp),%edx
  103043:	66 89 10             	mov    %dx,(%eax)
  103046:	0f b7 45 ec          	movzwl -0x14(%ebp),%eax
  10304a:	c1 e0 03             	shl    $0x3,%eax
  10304d:	03 45 fc             	add    -0x4(%ebp),%eax
  103050:	8b 55 10             	mov    0x10(%ebp),%edx
  103053:	c1 ea 10             	shr    $0x10,%edx
  103056:	83 e2 0f             	and    $0xf,%edx
  103059:	88 50 06             	mov    %dl,0x6(%eax)
  10305c:	0f b7 45 ec          	movzwl -0x14(%ebp),%eax
  103060:	c1 e0 03             	shl    $0x3,%eax
  103063:	03 45 fc             	add    -0x4(%ebp),%eax
  103066:	0f b7 55 ec          	movzwl -0x14(%ebp),%edx
  10306a:	c1 e2 03             	shl    $0x3,%edx
  10306d:	03 55 fc             	add    -0x4(%ebp),%edx
  103070:	0f b6 52 06          	movzbl 0x6(%edx),%edx
  103074:	0f b6 4d e4          	movzbl -0x1c(%ebp),%ecx
  103078:	83 e1 f0             	and    $0xfffffff0,%ecx
  10307b:	09 ca                	or     %ecx,%edx
  10307d:	88 50 06             	mov    %dl,0x6(%eax)
  103080:	0f b7 45 ec          	movzwl -0x14(%ebp),%eax
  103084:	c1 e0 03             	shl    $0x3,%eax
  103087:	03 45 fc             	add    -0x4(%ebp),%eax
  10308a:	0f b6 55 e8          	movzbl -0x18(%ebp),%edx
  10308e:	88 50 05             	mov    %dl,0x5(%eax)
  103091:	c9                   	leave  
  103092:	c3                   	ret    

00103093 <sys_install_gdt>:
  103093:	55                   	push   %ebp
  103094:	89 e5                	mov    %esp,%ebp
  103096:	83 ec 10             	sub    $0x10,%esp
  103099:	66 c7 45 fa 57 00    	movw   $0x57,-0x6(%ebp)
  10309f:	8b 45 08             	mov    0x8(%ebp),%eax
  1030a2:	89 45 fc             	mov    %eax,-0x4(%ebp)
  1030a5:	8d 45 fa             	lea    -0x6(%ebp),%eax
  1030a8:	0f 01 10             	lgdtl  (%eax)
  1030ab:	c9                   	leave  
  1030ac:	c3                   	ret    

001030ad <sys_set_lidt>:
  1030ad:	55                   	push   %ebp
  1030ae:	89 e5                	mov    %esp,%ebp
  1030b0:	83 ec 14             	sub    $0x14,%esp
  1030b3:	8b 45 0c             	mov    0xc(%ebp),%eax
  1030b6:	66 89 45 ec          	mov    %ax,-0x14(%ebp)
  1030ba:	0f b7 45 ec          	movzwl -0x14(%ebp),%eax
  1030be:	66 89 45 fa          	mov    %ax,-0x6(%ebp)
  1030c2:	8b 45 08             	mov    0x8(%ebp),%eax
  1030c5:	89 45 fc             	mov    %eax,-0x4(%ebp)
  1030c8:	8d 45 fa             	lea    -0x6(%ebp),%eax
  1030cb:	0f 01 18             	lidtl  (%eax)
  1030ce:	c9                   	leave  
  1030cf:	c3                   	ret    

001030d0 <sys_get_cpu_info>:
  1030d0:	55                   	push   %ebp
  1030d1:	89 e5                	mov    %esp,%ebp
  1030d3:	83 ec 18             	sub    $0x18,%esp
  1030d6:	a1 28 70 10 00       	mov    0x107028,%eax
  1030db:	85 c0                	test   %eax,%eax
  1030dd:	75 0a                	jne    1030e9 <sys_get_cpu_info+0x19>
  1030df:	e8 70 cf ff ff       	call   100054 <cpuid_detect>
  1030e4:	a3 28 70 10 00       	mov    %eax,0x107028
  1030e9:	a1 28 70 10 00       	mov    0x107028,%eax
  1030ee:	89 04 24             	mov    %eax,(%esp)
  1030f1:	e8 b5 cf ff ff       	call   1000ab <cpuid_set_strings>
  1030f6:	a1 28 70 10 00       	mov    0x107028,%eax
  1030fb:	c9                   	leave  
  1030fc:	c3                   	ret    

001030fd <sys_get_ticks>:
  1030fd:	55                   	push   %ebp
  1030fe:	89 e5                	mov    %esp,%ebp
  103100:	a1 30 70 10 00       	mov    0x107030,%eax
  103105:	8b 15 34 70 10 00    	mov    0x107034,%edx
  10310b:	5d                   	pop    %ebp
  10310c:	c3                   	ret    

0010310d <sys_irq_enabled>:
  10310d:	55                   	push   %ebp
  10310e:	89 e5                	mov    %esp,%ebp
  103110:	53                   	push   %ebx
  103111:	83 ec 10             	sub    $0x10,%esp
  103114:	9c                   	pushf  
  103115:	5b                   	pop    %ebx
  103116:	89 5d f8             	mov    %ebx,-0x8(%ebp)
  103119:	8b 45 f8             	mov    -0x8(%ebp),%eax
  10311c:	25 00 02 00 00       	and    $0x200,%eax
  103121:	85 c0                	test   %eax,%eax
  103123:	0f 95 c0             	setne  %al
  103126:	83 c4 10             	add    $0x10,%esp
  103129:	5b                   	pop    %ebx
  10312a:	5d                   	pop    %ebp
  10312b:	c3                   	ret    

0010312c <sys_rdtsc>:
  10312c:	55                   	push   %ebp
  10312d:	89 e5                	mov    %esp,%ebp
  10312f:	0f 31                	rdtsc  
  103131:	89 c1                	mov    %eax,%ecx
  103133:	8b 45 0c             	mov    0xc(%ebp),%eax
  103136:	89 08                	mov    %ecx,(%eax)
  103138:	8b 45 08             	mov    0x8(%ebp),%eax
  10313b:	89 10                	mov    %edx,(%eax)
  10313d:	5d                   	pop    %ebp
  10313e:	c3                   	ret    

0010313f <sys_flush_tlb>:
  10313f:	55                   	push   %ebp
  103140:	89 e5                	mov    %esp,%ebp
  103142:	0f 01 7d 08          	invlpg 0x8(%ebp)
  103146:	5d                   	pop    %ebp
  103147:	c3                   	ret    

00103148 <sys_read_MSR>:
  103148:	55                   	push   %ebp
  103149:	89 e5                	mov    %esp,%ebp
  10314b:	83 ec 08             	sub    $0x8,%esp
  10314e:	8b 4d 08             	mov    0x8(%ebp),%ecx
  103151:	89 4d f8             	mov    %ecx,-0x8(%ebp)
  103154:	8b 4d f8             	mov    -0x8(%ebp),%ecx
  103157:	0f 32                	rdmsr  
  103159:	89 45 fc             	mov    %eax,-0x4(%ebp)
  10315c:	8b 45 0c             	mov    0xc(%ebp),%eax
  10315f:	8b 4d fc             	mov    -0x4(%ebp),%ecx
  103162:	89 08                	mov    %ecx,(%eax)
  103164:	8b 45 10             	mov    0x10(%ebp),%eax
  103167:	89 10                	mov    %edx,(%eax)
  103169:	c9                   	leave  
  10316a:	c3                   	ret    

0010316b <sys_write_MSR>:
  10316b:	55                   	push   %ebp
  10316c:	89 e5                	mov    %esp,%ebp
  10316e:	8b 45 0c             	mov    0xc(%ebp),%eax
  103171:	8b 55 10             	mov    0x10(%ebp),%edx
  103174:	8b 4d 08             	mov    0x8(%ebp),%ecx
  103177:	0f 30                	wrmsr  
  103179:	5d                   	pop    %ebp
  10317a:	c3                   	ret    

0010317b <sys_timer_tick_handler>:
  10317b:	55                   	push   %ebp
  10317c:	89 e5                	mov    %esp,%ebp
  10317e:	83 ec 18             	sub    $0x18,%esp
  103181:	c7 04 24 00 00 00 00 	movl   $0x0,(%esp)
  103188:	e8 f2 f5 ff ff       	call   10277f <sys_pic_irq_eoi>
  10318d:	a1 30 70 10 00       	mov    0x107030,%eax
  103192:	8b 15 34 70 10 00    	mov    0x107034,%edx
  103198:	83 c0 01             	add    $0x1,%eax
  10319b:	83 d2 00             	adc    $0x0,%edx
  10319e:	a3 30 70 10 00       	mov    %eax,0x107030
  1031a3:	89 15 34 70 10 00    	mov    %edx,0x107034
  1031a9:	c9                   	leave  
  1031aa:	c3                   	ret    

001031ab <sys_page_fault_handler>:
  1031ab:	55                   	push   %ebp
  1031ac:	89 e5                	mov    %esp,%ebp
  1031ae:	5d                   	pop    %ebp
  1031af:	c3                   	ret    

001031b0 <terminal_initialize>:
  1031b0:	55                   	push   %ebp
  1031b1:	89 e5                	mov    %esp,%ebp
  1031b3:	53                   	push   %ebx
  1031b4:	83 ec 34             	sub    $0x34,%esp
  1031b7:	8b 45 08             	mov    0x8(%ebp),%eax
  1031ba:	88 45 e4             	mov    %al,-0x1c(%ebp)
  1031bd:	c6 05 40 70 10 00 00 	movb   $0x0,0x107040
  1031c4:	c6 05 3a 70 10 00 00 	movb   $0x0,0x10703a
  1031cb:	c6 05 38 70 10 00 07 	movb   $0x7,0x107038
  1031d2:	c7 05 3c 70 10 00 00 	movl   $0xb8000,0x10703c
  1031d9:	80 0b 00 
  1031dc:	80 7d e4 00          	cmpb   $0x0,-0x1c(%ebp)
  1031e0:	74 6b                	je     10324d <terminal_initialize+0x9d>
  1031e2:	c7 45 f4 00 00 00 00 	movl   $0x0,-0xc(%ebp)
  1031e9:	eb 5c                	jmp    103247 <terminal_initialize+0x97>
  1031eb:	c7 45 f0 00 00 00 00 	movl   $0x0,-0x10(%ebp)
  1031f2:	eb 49                	jmp    10323d <terminal_initialize+0x8d>
  1031f4:	8b 45 f4             	mov    -0xc(%ebp),%eax
  1031f7:	89 c2                	mov    %eax,%edx
  1031f9:	89 d0                	mov    %edx,%eax
  1031fb:	c1 e0 02             	shl    $0x2,%eax
  1031fe:	01 d0                	add    %edx,%eax
  103200:	c1 e0 04             	shl    $0x4,%eax
  103203:	89 c2                	mov    %eax,%edx
  103205:	8b 45 f0             	mov    -0x10(%ebp),%eax
  103208:	01 d0                	add    %edx,%eax
  10320a:	66 89 45 ee          	mov    %ax,-0x12(%ebp)
  10320e:	a1 3c 70 10 00       	mov    0x10703c,%eax
  103213:	0f b7 55 ee          	movzwl -0x12(%ebp),%edx
  103217:	01 d2                	add    %edx,%edx
  103219:	8d 1c 10             	lea    (%eax,%edx,1),%ebx
  10321c:	0f b6 05 38 70 10 00 	movzbl 0x107038,%eax
  103223:	0f b6 c0             	movzbl %al,%eax
  103226:	89 44 24 04          	mov    %eax,0x4(%esp)
  10322a:	c7 04 24 20 00 00 00 	movl   $0x20,(%esp)
  103231:	e8 d2 03 00 00       	call   103608 <vga_txt_makentry>
  103236:	66 89 03             	mov    %ax,(%ebx)
  103239:	83 45 f0 01          	addl   $0x1,-0x10(%ebp)
  10323d:	83 7d f0 4f          	cmpl   $0x4f,-0x10(%ebp)
  103241:	7e b1                	jle    1031f4 <terminal_initialize+0x44>
  103243:	83 45 f4 01          	addl   $0x1,-0xc(%ebp)
  103247:	83 7d f4 18          	cmpl   $0x18,-0xc(%ebp)
  10324b:	7e 9e                	jle    1031eb <terminal_initialize+0x3b>
  10324d:	c6 05 38 70 10 00 0f 	movb   $0xf,0x107038
  103254:	83 c4 34             	add    $0x34,%esp
  103257:	5b                   	pop    %ebx
  103258:	5d                   	pop    %ebp
  103259:	c3                   	ret    

0010325a <terminal_setColour>:
  10325a:	55                   	push   %ebp
  10325b:	89 e5                	mov    %esp,%ebp
  10325d:	83 ec 04             	sub    $0x4,%esp
  103260:	8b 45 08             	mov    0x8(%ebp),%eax
  103263:	88 45 fc             	mov    %al,-0x4(%ebp)
  103266:	0f b6 45 fc          	movzbl -0x4(%ebp),%eax
  10326a:	a2 38 70 10 00       	mov    %al,0x107038
  10326f:	c9                   	leave  
  103270:	c3                   	ret    

00103271 <terminal_putentryat>:
  103271:	55                   	push   %ebp
  103272:	89 e5                	mov    %esp,%ebp
  103274:	53                   	push   %ebx
  103275:	83 ec 34             	sub    $0x34,%esp
  103278:	8b 5d 08             	mov    0x8(%ebp),%ebx
  10327b:	8b 4d 0c             	mov    0xc(%ebp),%ecx
  10327e:	8b 55 10             	mov    0x10(%ebp),%edx
  103281:	8b 45 14             	mov    0x14(%ebp),%eax
  103284:	88 5d e4             	mov    %bl,-0x1c(%ebp)
  103287:	88 4d e0             	mov    %cl,-0x20(%ebp)
  10328a:	88 55 dc             	mov    %dl,-0x24(%ebp)
  10328d:	88 45 d8             	mov    %al,-0x28(%ebp)
  103290:	0f b6 55 d8          	movzbl -0x28(%ebp),%edx
  103294:	89 d0                	mov    %edx,%eax
  103296:	c1 e0 02             	shl    $0x2,%eax
  103299:	01 d0                	add    %edx,%eax
  10329b:	c1 e0 04             	shl    $0x4,%eax
  10329e:	89 c2                	mov    %eax,%edx
  1032a0:	0f b6 45 dc          	movzbl -0x24(%ebp),%eax
  1032a4:	01 d0                	add    %edx,%eax
  1032a6:	66 89 45 f6          	mov    %ax,-0xa(%ebp)
  1032aa:	a1 3c 70 10 00       	mov    0x10703c,%eax
  1032af:	0f b7 55 f6          	movzwl -0xa(%ebp),%edx
  1032b3:	01 d2                	add    %edx,%edx
  1032b5:	8d 1c 10             	lea    (%eax,%edx,1),%ebx
  1032b8:	0f b6 55 e0          	movzbl -0x20(%ebp),%edx
  1032bc:	0f b6 45 e4          	movzbl -0x1c(%ebp),%eax
  1032c0:	0f b6 c0             	movzbl %al,%eax
  1032c3:	89 54 24 04          	mov    %edx,0x4(%esp)
  1032c7:	89 04 24             	mov    %eax,(%esp)
  1032ca:	e8 39 03 00 00       	call   103608 <vga_txt_makentry>
  1032cf:	66 89 03             	mov    %ax,(%ebx)
  1032d2:	83 c4 34             	add    $0x34,%esp
  1032d5:	5b                   	pop    %ebx
  1032d6:	5d                   	pop    %ebp
  1032d7:	c3                   	ret    

001032d8 <terminal_putchar>:
  1032d8:	55                   	push   %ebp
  1032d9:	89 e5                	mov    %esp,%ebp
  1032db:	53                   	push   %ebx
  1032dc:	83 ec 24             	sub    $0x24,%esp
  1032df:	8b 45 08             	mov    0x8(%ebp),%eax
  1032e2:	88 45 f4             	mov    %al,-0xc(%ebp)
  1032e5:	80 7d f4 0a          	cmpb   $0xa,-0xc(%ebp)
  1032e9:	75 18                	jne    103303 <terminal_putchar+0x2b>
  1032eb:	0f b6 05 40 70 10 00 	movzbl 0x107040,%eax
  1032f2:	83 c0 01             	add    $0x1,%eax
  1032f5:	a2 40 70 10 00       	mov    %al,0x107040
  1032fa:	c6 05 3a 70 10 00 00 	movb   $0x0,0x10703a
  103301:	eb 78                	jmp    10337b <terminal_putchar+0xa3>
  103303:	0f b6 05 40 70 10 00 	movzbl 0x107040,%eax
  10330a:	0f b6 d8             	movzbl %al,%ebx
  10330d:	0f b6 05 3a 70 10 00 	movzbl 0x10703a,%eax
  103314:	0f b6 c8             	movzbl %al,%ecx
  103317:	0f b6 05 38 70 10 00 	movzbl 0x107038,%eax
  10331e:	0f b6 d0             	movzbl %al,%edx
  103321:	0f be 45 f4          	movsbl -0xc(%ebp),%eax
  103325:	89 5c 24 0c          	mov    %ebx,0xc(%esp)
  103329:	89 4c 24 08          	mov    %ecx,0x8(%esp)
  10332d:	89 54 24 04          	mov    %edx,0x4(%esp)
  103331:	89 04 24             	mov    %eax,(%esp)
  103334:	e8 38 ff ff ff       	call   103271 <terminal_putentryat>
  103339:	0f b6 05 3a 70 10 00 	movzbl 0x10703a,%eax
  103340:	83 c0 01             	add    $0x1,%eax
  103343:	a2 3a 70 10 00       	mov    %al,0x10703a
  103348:	0f b6 05 3a 70 10 00 	movzbl 0x10703a,%eax
  10334f:	3c 50                	cmp    $0x50,%al
  103351:	75 28                	jne    10337b <terminal_putchar+0xa3>
  103353:	c6 05 3a 70 10 00 00 	movb   $0x0,0x10703a
  10335a:	0f b6 05 40 70 10 00 	movzbl 0x107040,%eax
  103361:	83 c0 01             	add    $0x1,%eax
  103364:	a2 40 70 10 00       	mov    %al,0x107040
  103369:	0f b6 05 40 70 10 00 	movzbl 0x107040,%eax
  103370:	3c 19                	cmp    $0x19,%al
  103372:	75 07                	jne    10337b <terminal_putchar+0xa3>
  103374:	c6 05 40 70 10 00 00 	movb   $0x0,0x107040
  10337b:	83 c4 24             	add    $0x24,%esp
  10337e:	5b                   	pop    %ebx
  10337f:	5d                   	pop    %ebp
  103380:	c3                   	ret    

00103381 <terminal_write_string>:
  103381:	55                   	push   %ebp
  103382:	89 e5                	mov    %esp,%ebp
  103384:	83 ec 28             	sub    $0x28,%esp
  103387:	8b 45 08             	mov    0x8(%ebp),%eax
  10338a:	89 04 24             	mov    %eax,(%esp)
  10338d:	e8 fa f4 ff ff       	call   10288c <strlen>
  103392:	89 45 f0             	mov    %eax,-0x10(%ebp)
  103395:	c7 45 f4 00 00 00 00 	movl   $0x0,-0xc(%ebp)
  10339c:	eb 18                	jmp    1033b6 <terminal_write_string+0x35>
  10339e:	8b 45 f4             	mov    -0xc(%ebp),%eax
  1033a1:	03 45 08             	add    0x8(%ebp),%eax
  1033a4:	0f b6 00             	movzbl (%eax),%eax
  1033a7:	0f be c0             	movsbl %al,%eax
  1033aa:	89 04 24             	mov    %eax,(%esp)
  1033ad:	e8 26 ff ff ff       	call   1032d8 <terminal_putchar>
  1033b2:	83 45 f4 01          	addl   $0x1,-0xc(%ebp)
  1033b6:	8b 45 f4             	mov    -0xc(%ebp),%eax
  1033b9:	3b 45 f0             	cmp    -0x10(%ebp),%eax
  1033bc:	72 e0                	jb     10339e <terminal_write_string+0x1d>
  1033be:	0f b6 05 3a 70 10 00 	movzbl 0x10703a,%eax
  1033c5:	a2 39 70 10 00       	mov    %al,0x107039
  1033ca:	c9                   	leave  
  1033cb:	c3                   	ret    

001033cc <terminal_write_byte>:
  1033cc:	55                   	push   %ebp
  1033cd:	89 e5                	mov    %esp,%ebp
  1033cf:	83 ec 38             	sub    $0x38,%esp
  1033d2:	8b 45 08             	mov    0x8(%ebp),%eax
  1033d5:	88 45 e4             	mov    %al,-0x1c(%ebp)
  1033d8:	0f b6 45 e4          	movzbl -0x1c(%ebp),%eax
  1033dc:	c0 e8 04             	shr    $0x4,%al
  1033df:	88 45 f7             	mov    %al,-0x9(%ebp)
  1033e2:	80 7d f7 09          	cmpb   $0x9,-0x9(%ebp)
  1033e6:	76 06                	jbe    1033ee <terminal_write_byte+0x22>
  1033e8:	80 45 f7 37          	addb   $0x37,-0x9(%ebp)
  1033ec:	eb 04                	jmp    1033f2 <terminal_write_byte+0x26>
  1033ee:	80 45 f7 30          	addb   $0x30,-0x9(%ebp)
  1033f2:	0f b6 45 f7          	movzbl -0x9(%ebp),%eax
  1033f6:	0f be c0             	movsbl %al,%eax
  1033f9:	89 04 24             	mov    %eax,(%esp)
  1033fc:	e8 d7 fe ff ff       	call   1032d8 <terminal_putchar>
  103401:	0f b6 45 e4          	movzbl -0x1c(%ebp),%eax
  103405:	83 e0 0f             	and    $0xf,%eax
  103408:	88 45 f7             	mov    %al,-0x9(%ebp)
  10340b:	80 7d f7 09          	cmpb   $0x9,-0x9(%ebp)
  10340f:	76 06                	jbe    103417 <terminal_write_byte+0x4b>
  103411:	80 45 f7 37          	addb   $0x37,-0x9(%ebp)
  103415:	eb 04                	jmp    10341b <terminal_write_byte+0x4f>
  103417:	80 45 f7 30          	addb   $0x30,-0x9(%ebp)
  10341b:	0f b6 45 f7          	movzbl -0x9(%ebp),%eax
  10341f:	0f be c0             	movsbl %al,%eax
  103422:	89 04 24             	mov    %eax,(%esp)
  103425:	e8 ae fe ff ff       	call   1032d8 <terminal_putchar>
  10342a:	c9                   	leave  
  10342b:	c3                   	ret    

0010342c <terminal_write_word>:
  10342c:	55                   	push   %ebp
  10342d:	89 e5                	mov    %esp,%ebp
  10342f:	83 ec 28             	sub    $0x28,%esp
  103432:	8b 45 08             	mov    0x8(%ebp),%eax
  103435:	66 89 45 f4          	mov    %ax,-0xc(%ebp)
  103439:	0f b7 45 f4          	movzwl -0xc(%ebp),%eax
  10343d:	66 c1 e8 08          	shr    $0x8,%ax
  103441:	0f b6 c0             	movzbl %al,%eax
  103444:	89 04 24             	mov    %eax,(%esp)
  103447:	e8 80 ff ff ff       	call   1033cc <terminal_write_byte>
  10344c:	0f b7 45 f4          	movzwl -0xc(%ebp),%eax
  103450:	0f b6 c0             	movzbl %al,%eax
  103453:	89 04 24             	mov    %eax,(%esp)
  103456:	e8 71 ff ff ff       	call   1033cc <terminal_write_byte>
  10345b:	c9                   	leave  
  10345c:	c3                   	ret    

0010345d <terminal_write_dword>:
  10345d:	55                   	push   %ebp
  10345e:	89 e5                	mov    %esp,%ebp
  103460:	83 ec 18             	sub    $0x18,%esp
  103463:	8b 45 08             	mov    0x8(%ebp),%eax
  103466:	c1 e8 10             	shr    $0x10,%eax
  103469:	0f b7 c0             	movzwl %ax,%eax
  10346c:	89 04 24             	mov    %eax,(%esp)
  10346f:	e8 b8 ff ff ff       	call   10342c <terminal_write_word>
  103474:	8b 45 08             	mov    0x8(%ebp),%eax
  103477:	0f b7 c0             	movzwl %ax,%eax
  10347a:	89 04 24             	mov    %eax,(%esp)
  10347d:	e8 aa ff ff ff       	call   10342c <terminal_write_word>
  103482:	c9                   	leave  
  103483:	c3                   	ret    

00103484 <terminal_write_int>:
  103484:	55                   	push   %ebp
  103485:	89 e5                	mov    %esp,%ebp
  103487:	83 ec 68             	sub    $0x68,%esp
  10348a:	83 7d 08 00          	cmpl   $0x0,0x8(%ebp)
  10348e:	75 11                	jne    1034a1 <terminal_write_int+0x1d>
  103490:	c7 04 24 30 00 00 00 	movl   $0x30,(%esp)
  103497:	e8 3c fe ff ff       	call   1032d8 <terminal_putchar>
  10349c:	e9 b1 00 00 00       	jmp    103552 <terminal_write_int+0xce>
  1034a1:	8b 45 08             	mov    0x8(%ebp),%eax
  1034a4:	89 45 f4             	mov    %eax,-0xc(%ebp)
  1034a7:	c7 45 f0 00 00 00 00 	movl   $0x0,-0x10(%ebp)
  1034ae:	eb 53                	jmp    103503 <terminal_write_int+0x7f>
  1034b0:	8b 4d f4             	mov    -0xc(%ebp),%ecx
  1034b3:	ba 67 66 66 66       	mov    $0x66666667,%edx
  1034b8:	89 c8                	mov    %ecx,%eax
  1034ba:	f7 ea                	imul   %edx
  1034bc:	c1 fa 02             	sar    $0x2,%edx
  1034bf:	89 c8                	mov    %ecx,%eax
  1034c1:	c1 f8 1f             	sar    $0x1f,%eax
  1034c4:	29 c2                	sub    %eax,%edx
  1034c6:	89 d0                	mov    %edx,%eax
  1034c8:	c1 e0 02             	shl    $0x2,%eax
  1034cb:	01 d0                	add    %edx,%eax
  1034cd:	01 c0                	add    %eax,%eax
  1034cf:	89 ca                	mov    %ecx,%edx
  1034d1:	29 c2                	sub    %eax,%edx
  1034d3:	89 d0                	mov    %edx,%eax
  1034d5:	83 c0 30             	add    $0x30,%eax
  1034d8:	89 c2                	mov    %eax,%edx
  1034da:	8d 45 cc             	lea    -0x34(%ebp),%eax
  1034dd:	03 45 f0             	add    -0x10(%ebp),%eax
  1034e0:	88 10                	mov    %dl,(%eax)
  1034e2:	8b 4d f4             	mov    -0xc(%ebp),%ecx
  1034e5:	ba 67 66 66 66       	mov    $0x66666667,%edx
  1034ea:	89 c8                	mov    %ecx,%eax
  1034ec:	f7 ea                	imul   %edx
  1034ee:	c1 fa 02             	sar    $0x2,%edx
  1034f1:	89 c8                	mov    %ecx,%eax
  1034f3:	c1 f8 1f             	sar    $0x1f,%eax
  1034f6:	89 d1                	mov    %edx,%ecx
  1034f8:	29 c1                	sub    %eax,%ecx
  1034fa:	89 c8                	mov    %ecx,%eax
  1034fc:	89 45 f4             	mov    %eax,-0xc(%ebp)
  1034ff:	83 45 f0 01          	addl   $0x1,-0x10(%ebp)
  103503:	83 7d f4 00          	cmpl   $0x0,-0xc(%ebp)
  103507:	7f a7                	jg     1034b0 <terminal_write_int+0x2c>
  103509:	8d 45 cc             	lea    -0x34(%ebp),%eax
  10350c:	03 45 f0             	add    -0x10(%ebp),%eax
  10350f:	c6 00 00             	movb   $0x0,(%eax)
  103512:	8d 45 ac             	lea    -0x54(%ebp),%eax
  103515:	03 45 f0             	add    -0x10(%ebp),%eax
  103518:	c6 00 00             	movb   $0x0,(%eax)
  10351b:	83 6d f0 01          	subl   $0x1,-0x10(%ebp)
  10351f:	c7 45 ec 00 00 00 00 	movl   $0x0,-0x14(%ebp)
  103526:	eb 19                	jmp    103541 <terminal_write_int+0xbd>
  103528:	8d 45 cc             	lea    -0x34(%ebp),%eax
  10352b:	03 45 ec             	add    -0x14(%ebp),%eax
  10352e:	0f b6 10             	movzbl (%eax),%edx
  103531:	8d 45 ac             	lea    -0x54(%ebp),%eax
  103534:	03 45 f0             	add    -0x10(%ebp),%eax
  103537:	88 10                	mov    %dl,(%eax)
  103539:	83 6d f0 01          	subl   $0x1,-0x10(%ebp)
  10353d:	83 45 ec 01          	addl   $0x1,-0x14(%ebp)
  103541:	83 7d f0 00          	cmpl   $0x0,-0x10(%ebp)
  103545:	79 e1                	jns    103528 <terminal_write_int+0xa4>
  103547:	8d 45 ac             	lea    -0x54(%ebp),%eax
  10354a:	89 04 24             	mov    %eax,(%esp)
  10354d:	e8 2f fe ff ff       	call   103381 <terminal_write_string>
  103552:	c9                   	leave  
  103553:	c3                   	ret    

00103554 <terminal_clear>:
  103554:	55                   	push   %ebp
  103555:	89 e5                	mov    %esp,%ebp
  103557:	53                   	push   %ebx
  103558:	83 ec 24             	sub    $0x24,%esp
  10355b:	c7 45 f4 00 00 00 00 	movl   $0x0,-0xc(%ebp)
  103562:	eb 5c                	jmp    1035c0 <terminal_clear+0x6c>
  103564:	c7 45 f0 00 00 00 00 	movl   $0x0,-0x10(%ebp)
  10356b:	eb 49                	jmp    1035b6 <terminal_clear+0x62>
  10356d:	8b 45 f4             	mov    -0xc(%ebp),%eax
  103570:	89 c2                	mov    %eax,%edx
  103572:	89 d0                	mov    %edx,%eax
  103574:	c1 e0 02             	shl    $0x2,%eax
  103577:	01 d0                	add    %edx,%eax
  103579:	c1 e0 04             	shl    $0x4,%eax
  10357c:	89 c2                	mov    %eax,%edx
  10357e:	8b 45 f0             	mov    -0x10(%ebp),%eax
  103581:	01 d0                	add    %edx,%eax
  103583:	66 89 45 ee          	mov    %ax,-0x12(%ebp)
  103587:	a1 3c 70 10 00       	mov    0x10703c,%eax
  10358c:	0f b7 55 ee          	movzwl -0x12(%ebp),%edx
  103590:	01 d2                	add    %edx,%edx
  103592:	8d 1c 10             	lea    (%eax,%edx,1),%ebx
  103595:	0f b6 05 38 70 10 00 	movzbl 0x107038,%eax
  10359c:	0f b6 c0             	movzbl %al,%eax
  10359f:	89 44 24 04          	mov    %eax,0x4(%esp)
  1035a3:	c7 04 24 20 00 00 00 	movl   $0x20,(%esp)
  1035aa:	e8 59 00 00 00       	call   103608 <vga_txt_makentry>
  1035af:	66 89 03             	mov    %ax,(%ebx)
  1035b2:	83 45 f0 01          	addl   $0x1,-0x10(%ebp)
  1035b6:	83 7d f0 4f          	cmpl   $0x4f,-0x10(%ebp)
  1035ba:	7e b1                	jle    10356d <terminal_clear+0x19>
  1035bc:	83 45 f4 01          	addl   $0x1,-0xc(%ebp)
  1035c0:	83 7d f4 18          	cmpl   $0x18,-0xc(%ebp)
  1035c4:	7e 9e                	jle    103564 <terminal_clear+0x10>
  1035c6:	c6 05 3a 70 10 00 00 	movb   $0x0,0x10703a
  1035cd:	0f b6 05 3a 70 10 00 	movzbl 0x10703a,%eax
  1035d4:	a2 40 70 10 00       	mov    %al,0x107040
  1035d9:	83 c4 24             	add    $0x24,%esp
  1035dc:	5b                   	pop    %ebx
  1035dd:	5d                   	pop    %ebp
  1035de:	c3                   	ret    

001035df <terminal_setPos>:
  1035df:	55                   	push   %ebp
  1035e0:	89 e5                	mov    %esp,%ebp
  1035e2:	83 ec 08             	sub    $0x8,%esp
  1035e5:	8b 55 08             	mov    0x8(%ebp),%edx
  1035e8:	8b 45 0c             	mov    0xc(%ebp),%eax
  1035eb:	88 55 fc             	mov    %dl,-0x4(%ebp)
  1035ee:	88 45 f8             	mov    %al,-0x8(%ebp)
  1035f1:	0f b6 45 fc          	movzbl -0x4(%ebp),%eax
  1035f5:	a2 3a 70 10 00       	mov    %al,0x10703a
  1035fa:	0f b6 45 f8          	movzbl -0x8(%ebp),%eax
  1035fe:	a2 40 70 10 00       	mov    %al,0x107040
  103603:	c9                   	leave  
  103604:	c3                   	ret    
  103605:	00 00                	add    %al,(%eax)
	...

00103608 <vga_txt_makentry>:
  103608:	55                   	push   %ebp
  103609:	89 e5                	mov    %esp,%ebp
  10360b:	83 ec 08             	sub    $0x8,%esp
  10360e:	8b 55 08             	mov    0x8(%ebp),%edx
  103611:	8b 45 0c             	mov    0xc(%ebp),%eax
  103614:	88 55 fc             	mov    %dl,-0x4(%ebp)
  103617:	88 45 f8             	mov    %al,-0x8(%ebp)
  10361a:	0f b6 55 fc          	movzbl -0x4(%ebp),%edx
  10361e:	0f b6 45 f8          	movzbl -0x8(%ebp),%eax
  103622:	c1 e0 08             	shl    $0x8,%eax
  103625:	09 d0                	or     %edx,%eax
  103627:	c9                   	leave  
  103628:	c3                   	ret    
