
kernel.elf:     file format elf32-i386


Disassembly of section .text:

00100000 <_entry>:
  100000:	bc 00 00 40 00       	mov    $0x400000,%esp
  100005:	e8 01 1b 00 00       	call   101b0b <kernel_init>
  10000a:	e8 11 19 00 00       	call   101920 <kernel_main>
  10000f:	fa                   	cli    
  100010:	f4                   	hlt    
  100011:	eb fd                	jmp    100010 <_entry+0x10>
	...

00100014 <cpuid_detect>:
  100014:	55                   	push   %ebp
  100015:	89 e5                	mov    %esp,%ebp
  100017:	57                   	push   %edi
  100018:	56                   	push   %esi
  100019:	53                   	push   %ebx
  10001a:	83 ec 2c             	sub    $0x2c,%esp
  10001d:	c7 45 d0 00 00 00 00 	movl   $0x0,-0x30(%ebp)
  100024:	8b 45 d0             	mov    -0x30(%ebp),%eax
  100027:	0f a2                	cpuid  
  100029:	89 d6                	mov    %edx,%esi
  10002b:	89 cf                	mov    %ecx,%edi
  10002d:	89 45 d4             	mov    %eax,-0x2c(%ebp)
  100030:	8b 45 d4             	mov    -0x2c(%ebp),%eax
  100033:	89 45 e4             	mov    %eax,-0x1c(%ebp)
  100036:	89 5d e0             	mov    %ebx,-0x20(%ebp)
  100039:	89 7d e4             	mov    %edi,-0x1c(%ebp)
  10003c:	89 75 e4             	mov    %esi,-0x1c(%ebp)
  10003f:	8b 45 e0             	mov    -0x20(%ebp),%eax
  100042:	3d 41 75 74 68       	cmp    $0x68747541,%eax
  100047:	74 0e                	je     100057 <cpuid_detect+0x43>
  100049:	3d 47 65 6e 75       	cmp    $0x756e6547,%eax
  10004e:	75 0e                	jne    10005e <cpuid_detect+0x4a>
  100050:	e8 63 03 00 00       	call   1003b8 <cpuid_detect_intel>
  100055:	eb 0c                	jmp    100063 <cpuid_detect+0x4f>
  100057:	e8 4c 07 00 00       	call   1007a8 <cpuid_detect_amd>
  10005c:	eb 05                	jmp    100063 <cpuid_detect+0x4f>
  10005e:	b8 00 00 00 00       	mov    $0x0,%eax
  100063:	83 c4 2c             	add    $0x2c,%esp
  100066:	5b                   	pop    %ebx
  100067:	5e                   	pop    %esi
  100068:	5f                   	pop    %edi
  100069:	5d                   	pop    %ebp
  10006a:	c3                   	ret    

0010006b <cpuid_set_strings>:
  10006b:	55                   	push   %ebp
  10006c:	89 e5                	mov    %esp,%ebp
  10006e:	53                   	push   %ebx
  10006f:	8b 45 08             	mov    0x8(%ebp),%eax
  100072:	8b 40 28             	mov    0x28(%eax),%eax
  100075:	85 c0                	test   %eax,%eax
  100077:	0f 85 41 02 00 00    	jne    1002be <cpuid_set_strings+0x253>
  10007d:	8b 45 08             	mov    0x8(%ebp),%eax
  100080:	8b 40 1c             	mov    0x1c(%eax),%eax
  100083:	83 f8 01             	cmp    $0x1,%eax
  100086:	74 1d                	je     1000a5 <cpuid_set_strings+0x3a>
  100088:	83 f8 01             	cmp    $0x1,%eax
  10008b:	72 0c                	jb     100099 <cpuid_set_strings+0x2e>
  10008d:	83 f8 02             	cmp    $0x2,%eax
  100090:	74 1f                	je     1000b1 <cpuid_set_strings+0x46>
  100092:	83 f8 03             	cmp    $0x3,%eax
  100095:	74 26                	je     1000bd <cpuid_set_strings+0x52>
  100097:	eb 2f                	jmp    1000c8 <cpuid_set_strings+0x5d>
  100099:	8b 45 08             	mov    0x8(%ebp),%eax
  10009c:	c7 40 30 bf 58 10 00 	movl   $0x1058bf,0x30(%eax)
  1000a3:	eb 23                	jmp    1000c8 <cpuid_set_strings+0x5d>
  1000a5:	8b 45 08             	mov    0x8(%ebp),%eax
  1000a8:	c7 40 30 cc 58 10 00 	movl   $0x1058cc,0x30(%eax)
  1000af:	eb 17                	jmp    1000c8 <cpuid_set_strings+0x5d>
  1000b1:	8b 45 08             	mov    0x8(%ebp),%eax
  1000b4:	c7 40 30 d6 58 10 00 	movl   $0x1058d6,0x30(%eax)
  1000bb:	eb 0b                	jmp    1000c8 <cpuid_set_strings+0x5d>
  1000bd:	8b 45 08             	mov    0x8(%ebp),%eax
  1000c0:	c7 40 30 06 57 10 00 	movl   $0x105706,0x30(%eax)
  1000c7:	90                   	nop
  1000c8:	8b 45 08             	mov    0x8(%ebp),%eax
  1000cb:	8b 40 08             	mov    0x8(%eax),%eax
  1000ce:	83 e8 03             	sub    $0x3,%eax
  1000d1:	83 f8 0c             	cmp    $0xc,%eax
  1000d4:	77 44                	ja     10011a <cpuid_set_strings+0xaf>
  1000d6:	8b 04 85 b4 5a 10 00 	mov    0x105ab4(,%eax,4),%eax
  1000dd:	ff e0                	jmp    *%eax
  1000df:	8b 45 08             	mov    0x8(%ebp),%eax
  1000e2:	c7 40 34 e3 58 10 00 	movl   $0x1058e3,0x34(%eax)
  1000e9:	eb 2f                	jmp    10011a <cpuid_set_strings+0xaf>
  1000eb:	8b 45 08             	mov    0x8(%ebp),%eax
  1000ee:	c7 40 34 e8 58 10 00 	movl   $0x1058e8,0x34(%eax)
  1000f5:	eb 23                	jmp    10011a <cpuid_set_strings+0xaf>
  1000f7:	8b 45 08             	mov    0x8(%ebp),%eax
  1000fa:	c7 40 34 ed 58 10 00 	movl   $0x1058ed,0x34(%eax)
  100101:	eb 17                	jmp    10011a <cpuid_set_strings+0xaf>
  100103:	8b 45 08             	mov    0x8(%ebp),%eax
  100106:	c7 40 34 f5 58 10 00 	movl   $0x1058f5,0x34(%eax)
  10010d:	eb 0b                	jmp    10011a <cpuid_set_strings+0xaf>
  10010f:	8b 45 08             	mov    0x8(%ebp),%eax
  100112:	c7 40 34 01 59 10 00 	movl   $0x105901,0x34(%eax)
  100119:	90                   	nop
  10011a:	8b 45 08             	mov    0x8(%ebp),%eax
  10011d:	8b 40 08             	mov    0x8(%eax),%eax
  100120:	83 e8 03             	sub    $0x3,%eax
  100123:	83 f8 0c             	cmp    $0xc,%eax
  100126:	0f 87 2e 01 00 00    	ja     10025a <cpuid_set_strings+0x1ef>
  10012c:	8b 04 85 e8 5a 10 00 	mov    0x105ae8(,%eax,4),%eax
  100133:	ff e0                	jmp    *%eax
  100135:	8b 45 08             	mov    0x8(%ebp),%eax
  100138:	8b 40 10             	mov    0x10(%eax),%eax
  10013b:	83 f8 08             	cmp    $0x8,%eax
  10013e:	0f 87 12 01 00 00    	ja     100256 <cpuid_set_strings+0x1eb>
  100144:	8b 04 85 1c 5b 10 00 	mov    0x105b1c(,%eax,4),%eax
  10014b:	ff e0                	jmp    *%eax
  10014d:	8b 45 08             	mov    0x8(%ebp),%eax
  100150:	c7 40 38 0b 59 10 00 	movl   $0x10590b,0x38(%eax)
  100157:	eb 47                	jmp    1001a0 <cpuid_set_strings+0x135>
  100159:	8b 45 08             	mov    0x8(%ebp),%eax
  10015c:	c7 40 38 0e 59 10 00 	movl   $0x10590e,0x38(%eax)
  100163:	eb 3b                	jmp    1001a0 <cpuid_set_strings+0x135>
  100165:	8b 45 08             	mov    0x8(%ebp),%eax
  100168:	c7 40 38 11 59 10 00 	movl   $0x105911,0x38(%eax)
  10016f:	eb 2f                	jmp    1001a0 <cpuid_set_strings+0x135>
  100171:	8b 45 08             	mov    0x8(%ebp),%eax
  100174:	c7 40 38 19 59 10 00 	movl   $0x105919,0x38(%eax)
  10017b:	eb 23                	jmp    1001a0 <cpuid_set_strings+0x135>
  10017d:	8b 45 08             	mov    0x8(%ebp),%eax
  100180:	c7 40 38 1c 59 10 00 	movl   $0x10591c,0x38(%eax)
  100187:	eb 17                	jmp    1001a0 <cpuid_set_strings+0x135>
  100189:	8b 45 08             	mov    0x8(%ebp),%eax
  10018c:	c7 40 38 20 59 10 00 	movl   $0x105920,0x38(%eax)
  100193:	eb 0b                	jmp    1001a0 <cpuid_set_strings+0x135>
  100195:	8b 45 08             	mov    0x8(%ebp),%eax
  100198:	c7 40 38 38 59 10 00 	movl   $0x105938,0x38(%eax)
  10019f:	90                   	nop
  1001a0:	e9 b1 00 00 00       	jmp    100256 <cpuid_set_strings+0x1eb>
  1001a5:	8b 45 08             	mov    0x8(%ebp),%eax
  1001a8:	8b 40 10             	mov    0x10(%eax),%eax
  1001ab:	83 f8 02             	cmp    $0x2,%eax
  1001ae:	74 24                	je     1001d4 <cpuid_set_strings+0x169>
  1001b0:	83 f8 02             	cmp    $0x2,%eax
  1001b3:	77 07                	ja     1001bc <cpuid_set_strings+0x151>
  1001b5:	83 f8 01             	cmp    $0x1,%eax
  1001b8:	74 0e                	je     1001c8 <cpuid_set_strings+0x15d>
  1001ba:	eb 3b                	jmp    1001f7 <cpuid_set_strings+0x18c>
  1001bc:	83 f8 03             	cmp    $0x3,%eax
  1001bf:	74 1f                	je     1001e0 <cpuid_set_strings+0x175>
  1001c1:	83 f8 04             	cmp    $0x4,%eax
  1001c4:	74 26                	je     1001ec <cpuid_set_strings+0x181>
  1001c6:	eb 2f                	jmp    1001f7 <cpuid_set_strings+0x18c>
  1001c8:	8b 45 08             	mov    0x8(%ebp),%eax
  1001cb:	c7 40 38 3c 59 10 00 	movl   $0x10593c,0x38(%eax)
  1001d2:	eb 23                	jmp    1001f7 <cpuid_set_strings+0x18c>
  1001d4:	8b 45 08             	mov    0x8(%ebp),%eax
  1001d7:	c7 40 38 42 59 10 00 	movl   $0x105942,0x38(%eax)
  1001de:	eb 17                	jmp    1001f7 <cpuid_set_strings+0x18c>
  1001e0:	8b 45 08             	mov    0x8(%ebp),%eax
  1001e3:	c7 40 38 49 59 10 00 	movl   $0x105949,0x38(%eax)
  1001ea:	eb 0b                	jmp    1001f7 <cpuid_set_strings+0x18c>
  1001ec:	8b 45 08             	mov    0x8(%ebp),%eax
  1001ef:	c7 40 38 58 59 10 00 	movl   $0x105958,0x38(%eax)
  1001f6:	90                   	nop
  1001f7:	eb 61                	jmp    10025a <cpuid_set_strings+0x1ef>
  1001f9:	8b 45 08             	mov    0x8(%ebp),%eax
  1001fc:	8b 40 10             	mov    0x10(%eax),%eax
  1001ff:	83 f8 08             	cmp    $0x8,%eax
  100202:	77 55                	ja     100259 <cpuid_set_strings+0x1ee>
  100204:	8b 04 85 40 5b 10 00 	mov    0x105b40(,%eax,4),%eax
  10020b:	ff e0                	jmp    *%eax
  10020d:	8b 45 08             	mov    0x8(%ebp),%eax
  100210:	c7 40 38 f5 58 10 00 	movl   $0x1058f5,0x38(%eax)
  100217:	eb 3b                	jmp    100254 <cpuid_set_strings+0x1e9>
  100219:	8b 45 08             	mov    0x8(%ebp),%eax
  10021c:	c7 40 38 5c 59 10 00 	movl   $0x10595c,0x38(%eax)
  100223:	eb 2f                	jmp    100254 <cpuid_set_strings+0x1e9>
  100225:	8b 45 08             	mov    0x8(%ebp),%eax
  100228:	c7 40 38 70 59 10 00 	movl   $0x105970,0x38(%eax)
  10022f:	eb 23                	jmp    100254 <cpuid_set_strings+0x1e9>
  100231:	8b 45 08             	mov    0x8(%ebp),%eax
  100234:	c7 40 38 90 59 10 00 	movl   $0x105990,0x38(%eax)
  10023b:	eb 17                	jmp    100254 <cpuid_set_strings+0x1e9>
  10023d:	8b 45 08             	mov    0x8(%ebp),%eax
  100240:	c7 40 38 98 59 10 00 	movl   $0x105998,0x38(%eax)
  100247:	eb 0b                	jmp    100254 <cpuid_set_strings+0x1e9>
  100249:	8b 45 08             	mov    0x8(%ebp),%eax
  10024c:	c7 40 38 cc 59 10 00 	movl   $0x1059cc,0x38(%eax)
  100253:	90                   	nop
  100254:	eb 03                	jmp    100259 <cpuid_set_strings+0x1ee>
  100256:	90                   	nop
  100257:	eb 01                	jmp    10025a <cpuid_set_strings+0x1ef>
  100259:	90                   	nop
  10025a:	8b 45 08             	mov    0x8(%ebp),%eax
  10025d:	8b 40 20             	mov    0x20(%eax),%eax
  100260:	83 f8 17             	cmp    $0x17,%eax
  100263:	77 4a                	ja     1002af <cpuid_set_strings+0x244>
  100265:	8b 45 08             	mov    0x8(%ebp),%eax
  100268:	8b 40 24             	mov    0x24(%eax),%eax
  10026b:	3d b1 06 00 00       	cmp    $0x6b1,%eax
  100270:	74 0d                	je     10027f <cpuid_set_strings+0x214>
  100272:	8b 45 08             	mov    0x8(%ebp),%eax
  100275:	8b 40 24             	mov    0x24(%eax),%eax
  100278:	3d 13 0f 00 00       	cmp    $0xf13,%eax
  10027d:	75 18                	jne    100297 <cpuid_set_strings+0x22c>
  10027f:	8b 45 08             	mov    0x8(%ebp),%eax
  100282:	8b 40 20             	mov    0x20(%eax),%eax
  100285:	8b 14 85 60 38 10 00 	mov    0x103860(,%eax,4),%edx
  10028c:	8b 45 08             	mov    0x8(%ebp),%eax
  10028f:	89 50 3c             	mov    %edx,0x3c(%eax)
  100292:	e9 1e 01 00 00       	jmp    1003b5 <cpuid_set_strings+0x34a>
  100297:	8b 45 08             	mov    0x8(%ebp),%eax
  10029a:	8b 40 20             	mov    0x20(%eax),%eax
  10029d:	8b 14 85 00 38 10 00 	mov    0x103800(,%eax,4),%edx
  1002a4:	8b 45 08             	mov    0x8(%ebp),%eax
  1002a7:	89 50 3c             	mov    %edx,0x3c(%eax)
  1002aa:	e9 06 01 00 00       	jmp    1003b5 <cpuid_set_strings+0x34a>
  1002af:	8b 45 08             	mov    0x8(%ebp),%eax
  1002b2:	c7 40 3c 06 57 10 00 	movl   $0x105706,0x3c(%eax)
  1002b9:	e9 f7 00 00 00       	jmp    1003b5 <cpuid_set_strings+0x34a>
  1002be:	8b 45 08             	mov    0x8(%ebp),%eax
  1002c1:	8b 40 28             	mov    0x28(%eax),%eax
  1002c4:	83 f8 01             	cmp    $0x1,%eax
  1002c7:	0f 85 e8 00 00 00    	jne    1003b5 <cpuid_set_strings+0x34a>
  1002cd:	8b 45 08             	mov    0x8(%ebp),%eax
  1002d0:	8b 40 08             	mov    0x8(%eax),%eax
  1002d3:	83 f8 05             	cmp    $0x5,%eax
  1002d6:	74 21                	je     1002f9 <cpuid_set_strings+0x28e>
  1002d8:	83 f8 06             	cmp    $0x6,%eax
  1002db:	0f 84 84 00 00 00    	je     100365 <cpuid_set_strings+0x2fa>
  1002e1:	83 f8 04             	cmp    $0x4,%eax
  1002e4:	0f 85 cb 00 00 00    	jne    1003b5 <cpuid_set_strings+0x34a>
  1002ea:	8b 45 08             	mov    0x8(%ebp),%eax
  1002ed:	c7 40 38 fd 59 10 00 	movl   $0x1059fd,0x38(%eax)
  1002f4:	e9 bc 00 00 00       	jmp    1003b5 <cpuid_set_strings+0x34a>
  1002f9:	8b 45 08             	mov    0x8(%ebp),%eax
  1002fc:	8b 40 10             	mov    0x10(%eax),%eax
  1002ff:	83 f8 09             	cmp    $0x9,%eax
  100302:	77 54                	ja     100358 <cpuid_set_strings+0x2ed>
  100304:	ba 01 00 00 00       	mov    $0x1,%edx
  100309:	89 d3                	mov    %edx,%ebx
  10030b:	89 c1                	mov    %eax,%ecx
  10030d:	d3 e3                	shl    %cl,%ebx
  10030f:	89 d8                	mov    %ebx,%eax
  100311:	89 c2                	mov    %eax,%edx
  100313:	81 e2 cf 00 00 00    	and    $0xcf,%edx
  100319:	85 d2                	test   %edx,%edx
  10031b:	75 17                	jne    100334 <cpuid_set_strings+0x2c9>
  10031d:	89 c2                	mov    %eax,%edx
  10031f:	81 e2 00 02 00 00    	and    $0x200,%edx
  100325:	85 d2                	test   %edx,%edx
  100327:	75 23                	jne    10034c <cpuid_set_strings+0x2e1>
  100329:	25 00 01 00 00       	and    $0x100,%eax
  10032e:	85 c0                	test   %eax,%eax
  100330:	75 0e                	jne    100340 <cpuid_set_strings+0x2d5>
  100332:	eb 24                	jmp    100358 <cpuid_set_strings+0x2ed>
  100334:	8b 45 08             	mov    0x8(%ebp),%eax
  100337:	c7 40 38 0a 5a 10 00 	movl   $0x105a0a,0x38(%eax)
  10033e:	eb 23                	jmp    100363 <cpuid_set_strings+0x2f8>
  100340:	8b 45 08             	mov    0x8(%ebp),%eax
  100343:	c7 40 38 16 5a 10 00 	movl   $0x105a16,0x38(%eax)
  10034a:	eb 17                	jmp    100363 <cpuid_set_strings+0x2f8>
  10034c:	8b 45 08             	mov    0x8(%ebp),%eax
  10034f:	c7 40 38 26 5a 10 00 	movl   $0x105a26,0x38(%eax)
  100356:	eb 0b                	jmp    100363 <cpuid_set_strings+0x2f8>
  100358:	8b 45 08             	mov    0x8(%ebp),%eax
  10035b:	c7 40 38 38 5a 10 00 	movl   $0x105a38,0x38(%eax)
  100362:	90                   	nop
  100363:	eb 50                	jmp    1003b5 <cpuid_set_strings+0x34a>
  100365:	8b 45 08             	mov    0x8(%ebp),%eax
  100368:	8b 40 10             	mov    0x10(%eax),%eax
  10036b:	83 f8 07             	cmp    $0x7,%eax
  10036e:	77 39                	ja     1003a9 <cpuid_set_strings+0x33e>
  100370:	8b 04 85 64 5b 10 00 	mov    0x105b64(,%eax,4),%eax
  100377:	ff e0                	jmp    *%eax
  100379:	8b 45 08             	mov    0x8(%ebp),%eax
  10037c:	c7 40 38 47 5a 10 00 	movl   $0x105a47,0x38(%eax)
  100383:	eb 2f                	jmp    1003b4 <cpuid_set_strings+0x349>
  100385:	8b 45 08             	mov    0x8(%ebp),%eax
  100388:	c7 40 38 57 5a 10 00 	movl   $0x105a57,0x38(%eax)
  10038f:	eb 23                	jmp    1003b4 <cpuid_set_strings+0x349>
  100391:	8b 45 08             	mov    0x8(%ebp),%eax
  100394:	c7 40 38 68 5a 10 00 	movl   $0x105a68,0x38(%eax)
  10039b:	eb 17                	jmp    1003b4 <cpuid_set_strings+0x349>
  10039d:	8b 45 08             	mov    0x8(%ebp),%eax
  1003a0:	c7 40 38 88 5a 10 00 	movl   $0x105a88,0x38(%eax)
  1003a7:	eb 0b                	jmp    1003b4 <cpuid_set_strings+0x349>
  1003a9:	8b 45 08             	mov    0x8(%ebp),%eax
  1003ac:	c7 40 38 9d 5a 10 00 	movl   $0x105a9d,0x38(%eax)
  1003b3:	90                   	nop
  1003b4:	90                   	nop
  1003b5:	5b                   	pop    %ebx
  1003b6:	5d                   	pop    %ebp
  1003b7:	c3                   	ret    

001003b8 <cpuid_detect_intel>:
  1003b8:	55                   	push   %ebp
  1003b9:	89 e5                	mov    %esp,%ebp
  1003bb:	57                   	push   %edi
  1003bc:	56                   	push   %esi
  1003bd:	53                   	push   %ebx
  1003be:	81 ec 8c 00 00 00    	sub    $0x8c,%esp
  1003c4:	c7 04 24 40 00 00 00 	movl   $0x40,(%esp)
  1003cb:	e8 53 0b 00 00       	call   100f23 <kmalloc>
  1003d0:	89 45 d4             	mov    %eax,-0x2c(%ebp)
  1003d3:	c7 44 24 08 40 00 00 	movl   $0x40,0x8(%esp)
  1003da:	00 
  1003db:	c7 44 24 04 00 00 00 	movl   $0x0,0x4(%esp)
  1003e2:	00 
  1003e3:	8b 45 d4             	mov    -0x2c(%ebp),%eax
  1003e6:	89 04 24             	mov    %eax,(%esp)
  1003e9:	e8 fe 24 00 00       	call   1028ec <memset>
  1003ee:	c7 45 d0 ff ff ff ff 	movl   $0xffffffff,-0x30(%ebp)
  1003f5:	c7 45 80 01 00 00 00 	movl   $0x1,-0x80(%ebp)
  1003fc:	8b 45 80             	mov    -0x80(%ebp),%eax
  1003ff:	0f a2                	cpuid  
  100401:	89 d6                	mov    %edx,%esi
  100403:	89 cf                	mov    %ecx,%edi
  100405:	89 45 94             	mov    %eax,-0x6c(%ebp)
  100408:	8b 45 94             	mov    -0x6c(%ebp),%eax
  10040b:	89 45 cc             	mov    %eax,-0x34(%ebp)
  10040e:	89 5d c8             	mov    %ebx,-0x38(%ebp)
  100411:	89 7d c4             	mov    %edi,-0x3c(%ebp)
  100414:	89 75 c4             	mov    %esi,-0x3c(%ebp)
  100417:	8b 45 cc             	mov    -0x34(%ebp),%eax
  10041a:	c1 e8 04             	shr    $0x4,%eax
  10041d:	83 e0 0f             	and    $0xf,%eax
  100420:	89 45 c0             	mov    %eax,-0x40(%ebp)
  100423:	8b 45 cc             	mov    -0x34(%ebp),%eax
  100426:	c1 e8 08             	shr    $0x8,%eax
  100429:	83 e0 0f             	and    $0xf,%eax
  10042c:	89 45 bc             	mov    %eax,-0x44(%ebp)
  10042f:	8b 45 cc             	mov    -0x34(%ebp),%eax
  100432:	c1 e8 0c             	shr    $0xc,%eax
  100435:	83 e0 03             	and    $0x3,%eax
  100438:	89 45 b8             	mov    %eax,-0x48(%ebp)
  10043b:	8b 45 c8             	mov    -0x38(%ebp),%eax
  10043e:	25 ff 00 00 00       	and    $0xff,%eax
  100443:	89 45 b4             	mov    %eax,-0x4c(%ebp)
  100446:	8b 45 cc             	mov    -0x34(%ebp),%eax
  100449:	83 e0 0f             	and    $0xf,%eax
  10044c:	89 45 b0             	mov    %eax,-0x50(%ebp)
  10044f:	8b 45 cc             	mov    -0x34(%ebp),%eax
  100452:	c1 e8 0e             	shr    $0xe,%eax
  100455:	89 45 ac             	mov    %eax,-0x54(%ebp)
  100458:	8b 45 cc             	mov    -0x34(%ebp),%eax
  10045b:	89 45 a8             	mov    %eax,-0x58(%ebp)
  10045e:	8b 45 d4             	mov    -0x2c(%ebp),%eax
  100461:	8b 55 c0             	mov    -0x40(%ebp),%edx
  100464:	89 50 10             	mov    %edx,0x10(%eax)
  100467:	8b 45 d4             	mov    -0x2c(%ebp),%eax
  10046a:	8b 55 bc             	mov    -0x44(%ebp),%edx
  10046d:	89 50 08             	mov    %edx,0x8(%eax)
  100470:	8b 45 d4             	mov    -0x2c(%ebp),%eax
  100473:	8b 55 b8             	mov    -0x48(%ebp),%edx
  100476:	89 50 1c             	mov    %edx,0x1c(%eax)
  100479:	8b 45 d4             	mov    -0x2c(%ebp),%eax
  10047c:	8b 55 b4             	mov    -0x4c(%ebp),%edx
  10047f:	89 50 20             	mov    %edx,0x20(%eax)
  100482:	8b 45 d4             	mov    -0x2c(%ebp),%eax
  100485:	8b 55 b0             	mov    -0x50(%ebp),%edx
  100488:	89 50 14             	mov    %edx,0x14(%eax)
  10048b:	8b 45 d4             	mov    -0x2c(%ebp),%eax
  10048e:	8b 55 ac             	mov    -0x54(%ebp),%edx
  100491:	89 50 18             	mov    %edx,0x18(%eax)
  100494:	8b 45 d4             	mov    -0x2c(%ebp),%eax
  100497:	8b 55 a8             	mov    -0x58(%ebp),%edx
  10049a:	89 50 24             	mov    %edx,0x24(%eax)
  10049d:	8b 45 d4             	mov    -0x2c(%ebp),%eax
  1004a0:	c7 40 28 00 00 00 00 	movl   $0x0,0x28(%eax)
  1004a7:	83 7d bc 0f          	cmpl   $0xf,-0x44(%ebp)
  1004ab:	75 17                	jne    1004c4 <cpuid_detect_intel+0x10c>
  1004ad:	8b 45 cc             	mov    -0x34(%ebp),%eax
  1004b0:	c1 e8 14             	shr    $0x14,%eax
  1004b3:	25 ff 00 00 00       	and    $0xff,%eax
  1004b8:	89 45 d0             	mov    %eax,-0x30(%ebp)
  1004bb:	8b 45 d4             	mov    -0x2c(%ebp),%eax
  1004be:	8b 55 d0             	mov    -0x30(%ebp),%edx
  1004c1:	89 50 0c             	mov    %edx,0xc(%eax)
  1004c4:	c7 45 80 00 00 00 80 	movl   $0x80000000,-0x80(%ebp)
  1004cb:	8b 45 80             	mov    -0x80(%ebp),%eax
  1004ce:	0f a2                	cpuid  
  1004d0:	89 d6                	mov    %edx,%esi
  1004d2:	89 cf                	mov    %ecx,%edi
  1004d4:	89 45 90             	mov    %eax,-0x70(%ebp)
  1004d7:	8b 45 90             	mov    -0x70(%ebp),%eax
  1004da:	89 45 a4             	mov    %eax,-0x5c(%ebp)
  1004dd:	89 5d c4             	mov    %ebx,-0x3c(%ebp)
  1004e0:	89 7d c4             	mov    %edi,-0x3c(%ebp)
  1004e3:	89 75 c4             	mov    %esi,-0x3c(%ebp)
  1004e6:	81 7d a4 03 00 00 80 	cmpl   $0x80000003,-0x5c(%ebp)
  1004ed:	0f 86 a7 02 00 00    	jbe    10079a <cpuid_detect_intel+0x3e2>
  1004f3:	c7 04 24 41 00 00 00 	movl   $0x41,(%esp)
  1004fa:	e8 24 0a 00 00       	call   100f23 <kmalloc>
  1004ff:	89 45 a0             	mov    %eax,-0x60(%ebp)
  100502:	c7 44 24 08 41 00 00 	movl   $0x41,0x8(%esp)
  100509:	00 
  10050a:	c7 44 24 04 00 00 00 	movl   $0x0,0x4(%esp)
  100511:	00 
  100512:	8b 45 a0             	mov    -0x60(%ebp),%eax
  100515:	89 04 24             	mov    %eax,(%esp)
  100518:	e8 cf 23 00 00       	call   1028ec <memset>
  10051d:	c6 45 e7 00          	movb   $0x0,-0x19(%ebp)
  100521:	81 7d a4 01 00 00 80 	cmpl   $0x80000001,-0x5c(%ebp)
  100528:	0f 86 c3 00 00 00    	jbe    1005f1 <cpuid_detect_intel+0x239>
  10052e:	c7 45 80 02 00 00 80 	movl   $0x80000002,-0x80(%ebp)
  100535:	8b 45 80             	mov    -0x80(%ebp),%eax
  100538:	0f a2                	cpuid  
  10053a:	89 d6                	mov    %edx,%esi
  10053c:	89 cf                	mov    %ecx,%edi
  10053e:	89 45 8c             	mov    %eax,-0x74(%ebp)
  100541:	8b 45 8c             	mov    -0x74(%ebp),%eax
  100544:	89 45 cc             	mov    %eax,-0x34(%ebp)
  100547:	89 5d c8             	mov    %ebx,-0x38(%ebp)
  10054a:	89 7d 9c             	mov    %edi,-0x64(%ebp)
  10054d:	89 75 98             	mov    %esi,-0x68(%ebp)
  100550:	c7 45 e0 00 00 00 00 	movl   $0x0,-0x20(%ebp)
  100557:	e9 87 00 00 00       	jmp    1005e3 <cpuid_detect_intel+0x22b>
  10055c:	0f b6 45 e7          	movzbl -0x19(%ebp),%eax
  100560:	03 45 e0             	add    -0x20(%ebp),%eax
  100563:	03 45 a0             	add    -0x60(%ebp),%eax
  100566:	8b 55 e0             	mov    -0x20(%ebp),%edx
  100569:	c1 e2 03             	shl    $0x3,%edx
  10056c:	8b 5d cc             	mov    -0x34(%ebp),%ebx
  10056f:	89 de                	mov    %ebx,%esi
  100571:	89 d1                	mov    %edx,%ecx
  100573:	d3 ee                	shr    %cl,%esi
  100575:	89 f2                	mov    %esi,%edx
  100577:	88 10                	mov    %dl,(%eax)
  100579:	8b 45 e0             	mov    -0x20(%ebp),%eax
  10057c:	8d 50 04             	lea    0x4(%eax),%edx
  10057f:	0f b6 45 e7          	movzbl -0x19(%ebp),%eax
  100583:	01 d0                	add    %edx,%eax
  100585:	03 45 a0             	add    -0x60(%ebp),%eax
  100588:	8b 55 e0             	mov    -0x20(%ebp),%edx
  10058b:	c1 e2 03             	shl    $0x3,%edx
  10058e:	8b 5d c8             	mov    -0x38(%ebp),%ebx
  100591:	89 de                	mov    %ebx,%esi
  100593:	89 d1                	mov    %edx,%ecx
  100595:	d3 ee                	shr    %cl,%esi
  100597:	89 f2                	mov    %esi,%edx
  100599:	88 10                	mov    %dl,(%eax)
  10059b:	8b 45 e0             	mov    -0x20(%ebp),%eax
  10059e:	8d 50 08             	lea    0x8(%eax),%edx
  1005a1:	0f b6 45 e7          	movzbl -0x19(%ebp),%eax
  1005a5:	01 d0                	add    %edx,%eax
  1005a7:	03 45 a0             	add    -0x60(%ebp),%eax
  1005aa:	8b 55 e0             	mov    -0x20(%ebp),%edx
  1005ad:	c1 e2 03             	shl    $0x3,%edx
  1005b0:	8b 5d 9c             	mov    -0x64(%ebp),%ebx
  1005b3:	89 de                	mov    %ebx,%esi
  1005b5:	89 d1                	mov    %edx,%ecx
  1005b7:	d3 ee                	shr    %cl,%esi
  1005b9:	89 f2                	mov    %esi,%edx
  1005bb:	88 10                	mov    %dl,(%eax)
  1005bd:	8b 45 e0             	mov    -0x20(%ebp),%eax
  1005c0:	8d 50 0c             	lea    0xc(%eax),%edx
  1005c3:	0f b6 45 e7          	movzbl -0x19(%ebp),%eax
  1005c7:	01 d0                	add    %edx,%eax
  1005c9:	03 45 a0             	add    -0x60(%ebp),%eax
  1005cc:	8b 55 e0             	mov    -0x20(%ebp),%edx
  1005cf:	c1 e2 03             	shl    $0x3,%edx
  1005d2:	8b 5d 98             	mov    -0x68(%ebp),%ebx
  1005d5:	89 de                	mov    %ebx,%esi
  1005d7:	89 d1                	mov    %edx,%ecx
  1005d9:	d3 ee                	shr    %cl,%esi
  1005db:	89 f2                	mov    %esi,%edx
  1005dd:	88 10                	mov    %dl,(%eax)
  1005df:	83 45 e0 01          	addl   $0x1,-0x20(%ebp)
  1005e3:	83 7d e0 03          	cmpl   $0x3,-0x20(%ebp)
  1005e7:	0f 8e 6f ff ff ff    	jle    10055c <cpuid_detect_intel+0x1a4>
  1005ed:	80 45 e7 10          	addb   $0x10,-0x19(%ebp)
  1005f1:	81 7d a4 02 00 00 80 	cmpl   $0x80000002,-0x5c(%ebp)
  1005f8:	0f 86 c3 00 00 00    	jbe    1006c1 <cpuid_detect_intel+0x309>
  1005fe:	c7 45 80 03 00 00 80 	movl   $0x80000003,-0x80(%ebp)
  100605:	8b 45 80             	mov    -0x80(%ebp),%eax
  100608:	0f a2                	cpuid  
  10060a:	89 d6                	mov    %edx,%esi
  10060c:	89 cf                	mov    %ecx,%edi
  10060e:	89 45 88             	mov    %eax,-0x78(%ebp)
  100611:	8b 45 88             	mov    -0x78(%ebp),%eax
  100614:	89 45 cc             	mov    %eax,-0x34(%ebp)
  100617:	89 5d c8             	mov    %ebx,-0x38(%ebp)
  10061a:	89 7d 9c             	mov    %edi,-0x64(%ebp)
  10061d:	89 75 98             	mov    %esi,-0x68(%ebp)
  100620:	c7 45 dc 00 00 00 00 	movl   $0x0,-0x24(%ebp)
  100627:	e9 87 00 00 00       	jmp    1006b3 <cpuid_detect_intel+0x2fb>
  10062c:	0f b6 45 e7          	movzbl -0x19(%ebp),%eax
  100630:	03 45 dc             	add    -0x24(%ebp),%eax
  100633:	03 45 a0             	add    -0x60(%ebp),%eax
  100636:	8b 55 dc             	mov    -0x24(%ebp),%edx
  100639:	c1 e2 03             	shl    $0x3,%edx
  10063c:	8b 5d cc             	mov    -0x34(%ebp),%ebx
  10063f:	89 de                	mov    %ebx,%esi
  100641:	89 d1                	mov    %edx,%ecx
  100643:	d3 ee                	shr    %cl,%esi
  100645:	89 f2                	mov    %esi,%edx
  100647:	88 10                	mov    %dl,(%eax)
  100649:	8b 45 dc             	mov    -0x24(%ebp),%eax
  10064c:	8d 50 04             	lea    0x4(%eax),%edx
  10064f:	0f b6 45 e7          	movzbl -0x19(%ebp),%eax
  100653:	01 d0                	add    %edx,%eax
  100655:	03 45 a0             	add    -0x60(%ebp),%eax
  100658:	8b 55 dc             	mov    -0x24(%ebp),%edx
  10065b:	c1 e2 03             	shl    $0x3,%edx
  10065e:	8b 5d c8             	mov    -0x38(%ebp),%ebx
  100661:	89 de                	mov    %ebx,%esi
  100663:	89 d1                	mov    %edx,%ecx
  100665:	d3 ee                	shr    %cl,%esi
  100667:	89 f2                	mov    %esi,%edx
  100669:	88 10                	mov    %dl,(%eax)
  10066b:	8b 45 dc             	mov    -0x24(%ebp),%eax
  10066e:	8d 50 08             	lea    0x8(%eax),%edx
  100671:	0f b6 45 e7          	movzbl -0x19(%ebp),%eax
  100675:	01 d0                	add    %edx,%eax
  100677:	03 45 a0             	add    -0x60(%ebp),%eax
  10067a:	8b 55 dc             	mov    -0x24(%ebp),%edx
  10067d:	c1 e2 03             	shl    $0x3,%edx
  100680:	8b 5d 9c             	mov    -0x64(%ebp),%ebx
  100683:	89 de                	mov    %ebx,%esi
  100685:	89 d1                	mov    %edx,%ecx
  100687:	d3 ee                	shr    %cl,%esi
  100689:	89 f2                	mov    %esi,%edx
  10068b:	88 10                	mov    %dl,(%eax)
  10068d:	8b 45 dc             	mov    -0x24(%ebp),%eax
  100690:	8d 50 0c             	lea    0xc(%eax),%edx
  100693:	0f b6 45 e7          	movzbl -0x19(%ebp),%eax
  100697:	01 d0                	add    %edx,%eax
  100699:	03 45 a0             	add    -0x60(%ebp),%eax
  10069c:	8b 55 dc             	mov    -0x24(%ebp),%edx
  10069f:	c1 e2 03             	shl    $0x3,%edx
  1006a2:	8b 5d 98             	mov    -0x68(%ebp),%ebx
  1006a5:	89 de                	mov    %ebx,%esi
  1006a7:	89 d1                	mov    %edx,%ecx
  1006a9:	d3 ee                	shr    %cl,%esi
  1006ab:	89 f2                	mov    %esi,%edx
  1006ad:	88 10                	mov    %dl,(%eax)
  1006af:	83 45 dc 01          	addl   $0x1,-0x24(%ebp)
  1006b3:	83 7d dc 03          	cmpl   $0x3,-0x24(%ebp)
  1006b7:	0f 8e 6f ff ff ff    	jle    10062c <cpuid_detect_intel+0x274>
  1006bd:	80 45 e7 10          	addb   $0x10,-0x19(%ebp)
  1006c1:	81 7d a4 03 00 00 80 	cmpl   $0x80000003,-0x5c(%ebp)
  1006c8:	0f 86 c3 00 00 00    	jbe    100791 <cpuid_detect_intel+0x3d9>
  1006ce:	c7 45 80 04 00 00 80 	movl   $0x80000004,-0x80(%ebp)
  1006d5:	8b 45 80             	mov    -0x80(%ebp),%eax
  1006d8:	0f a2                	cpuid  
  1006da:	89 d6                	mov    %edx,%esi
  1006dc:	89 cf                	mov    %ecx,%edi
  1006de:	89 45 84             	mov    %eax,-0x7c(%ebp)
  1006e1:	8b 45 84             	mov    -0x7c(%ebp),%eax
  1006e4:	89 45 cc             	mov    %eax,-0x34(%ebp)
  1006e7:	89 5d c8             	mov    %ebx,-0x38(%ebp)
  1006ea:	89 7d 9c             	mov    %edi,-0x64(%ebp)
  1006ed:	89 75 98             	mov    %esi,-0x68(%ebp)
  1006f0:	c7 45 d8 00 00 00 00 	movl   $0x0,-0x28(%ebp)
  1006f7:	e9 87 00 00 00       	jmp    100783 <cpuid_detect_intel+0x3cb>
  1006fc:	0f b6 45 e7          	movzbl -0x19(%ebp),%eax
  100700:	03 45 d8             	add    -0x28(%ebp),%eax
  100703:	03 45 a0             	add    -0x60(%ebp),%eax
  100706:	8b 55 d8             	mov    -0x28(%ebp),%edx
  100709:	c1 e2 03             	shl    $0x3,%edx
  10070c:	8b 5d cc             	mov    -0x34(%ebp),%ebx
  10070f:	89 de                	mov    %ebx,%esi
  100711:	89 d1                	mov    %edx,%ecx
  100713:	d3 ee                	shr    %cl,%esi
  100715:	89 f2                	mov    %esi,%edx
  100717:	88 10                	mov    %dl,(%eax)
  100719:	8b 45 d8             	mov    -0x28(%ebp),%eax
  10071c:	8d 50 04             	lea    0x4(%eax),%edx
  10071f:	0f b6 45 e7          	movzbl -0x19(%ebp),%eax
  100723:	01 d0                	add    %edx,%eax
  100725:	03 45 a0             	add    -0x60(%ebp),%eax
  100728:	8b 55 d8             	mov    -0x28(%ebp),%edx
  10072b:	c1 e2 03             	shl    $0x3,%edx
  10072e:	8b 5d c8             	mov    -0x38(%ebp),%ebx
  100731:	89 de                	mov    %ebx,%esi
  100733:	89 d1                	mov    %edx,%ecx
  100735:	d3 ee                	shr    %cl,%esi
  100737:	89 f2                	mov    %esi,%edx
  100739:	88 10                	mov    %dl,(%eax)
  10073b:	8b 45 d8             	mov    -0x28(%ebp),%eax
  10073e:	8d 50 08             	lea    0x8(%eax),%edx
  100741:	0f b6 45 e7          	movzbl -0x19(%ebp),%eax
  100745:	01 d0                	add    %edx,%eax
  100747:	03 45 a0             	add    -0x60(%ebp),%eax
  10074a:	8b 55 d8             	mov    -0x28(%ebp),%edx
  10074d:	c1 e2 03             	shl    $0x3,%edx
  100750:	8b 5d 9c             	mov    -0x64(%ebp),%ebx
  100753:	89 de                	mov    %ebx,%esi
  100755:	89 d1                	mov    %edx,%ecx
  100757:	d3 ee                	shr    %cl,%esi
  100759:	89 f2                	mov    %esi,%edx
  10075b:	88 10                	mov    %dl,(%eax)
  10075d:	8b 45 d8             	mov    -0x28(%ebp),%eax
  100760:	8d 50 0c             	lea    0xc(%eax),%edx
  100763:	0f b6 45 e7          	movzbl -0x19(%ebp),%eax
  100767:	01 d0                	add    %edx,%eax
  100769:	03 45 a0             	add    -0x60(%ebp),%eax
  10076c:	8b 55 d8             	mov    -0x28(%ebp),%edx
  10076f:	c1 e2 03             	shl    $0x3,%edx
  100772:	8b 5d 98             	mov    -0x68(%ebp),%ebx
  100775:	89 de                	mov    %ebx,%esi
  100777:	89 d1                	mov    %edx,%ecx
  100779:	d3 ee                	shr    %cl,%esi
  10077b:	89 f2                	mov    %esi,%edx
  10077d:	88 10                	mov    %dl,(%eax)
  10077f:	83 45 d8 01          	addl   $0x1,-0x28(%ebp)
  100783:	83 7d d8 03          	cmpl   $0x3,-0x28(%ebp)
  100787:	0f 8e 6f ff ff ff    	jle    1006fc <cpuid_detect_intel+0x344>
  10078d:	80 45 e7 10          	addb   $0x10,-0x19(%ebp)
  100791:	8b 45 d4             	mov    -0x2c(%ebp),%eax
  100794:	8b 55 a0             	mov    -0x60(%ebp),%edx
  100797:	89 50 04             	mov    %edx,0x4(%eax)
  10079a:	8b 45 d4             	mov    -0x2c(%ebp),%eax
  10079d:	81 c4 8c 00 00 00    	add    $0x8c,%esp
  1007a3:	5b                   	pop    %ebx
  1007a4:	5e                   	pop    %esi
  1007a5:	5f                   	pop    %edi
  1007a6:	5d                   	pop    %ebp
  1007a7:	c3                   	ret    

001007a8 <cpuid_detect_amd>:
  1007a8:	55                   	push   %ebp
  1007a9:	89 e5                	mov    %esp,%ebp
  1007ab:	57                   	push   %edi
  1007ac:	56                   	push   %esi
  1007ad:	53                   	push   %ebx
  1007ae:	83 ec 7c             	sub    $0x7c,%esp
  1007b1:	c7 04 24 40 00 00 00 	movl   $0x40,(%esp)
  1007b8:	e8 66 07 00 00       	call   100f23 <kmalloc>
  1007bd:	89 45 d8             	mov    %eax,-0x28(%ebp)
  1007c0:	c7 44 24 08 40 00 00 	movl   $0x40,0x8(%esp)
  1007c7:	00 
  1007c8:	c7 44 24 04 00 00 00 	movl   $0x0,0x4(%esp)
  1007cf:	00 
  1007d0:	8b 45 d8             	mov    -0x28(%ebp),%eax
  1007d3:	89 04 24             	mov    %eax,(%esp)
  1007d6:	e8 11 21 00 00       	call   1028ec <memset>
  1007db:	c7 45 94 01 00 00 00 	movl   $0x1,-0x6c(%ebp)
  1007e2:	8b 45 94             	mov    -0x6c(%ebp),%eax
  1007e5:	0f a2                	cpuid  
  1007e7:	89 d6                	mov    %edx,%esi
  1007e9:	89 cf                	mov    %ecx,%edi
  1007eb:	89 45 a4             	mov    %eax,-0x5c(%ebp)
  1007ee:	8b 45 a4             	mov    -0x5c(%ebp),%eax
  1007f1:	89 45 d4             	mov    %eax,-0x2c(%ebp)
  1007f4:	89 5d d0             	mov    %ebx,-0x30(%ebp)
  1007f7:	89 7d d0             	mov    %edi,-0x30(%ebp)
  1007fa:	89 75 d0             	mov    %esi,-0x30(%ebp)
  1007fd:	8b 45 d4             	mov    -0x2c(%ebp),%eax
  100800:	c1 e8 04             	shr    $0x4,%eax
  100803:	83 e0 0f             	and    $0xf,%eax
  100806:	89 45 cc             	mov    %eax,-0x34(%ebp)
  100809:	8b 45 d4             	mov    -0x2c(%ebp),%eax
  10080c:	c1 e8 08             	shr    $0x8,%eax
  10080f:	83 e0 0f             	and    $0xf,%eax
  100812:	89 45 c8             	mov    %eax,-0x38(%ebp)
  100815:	8b 45 d4             	mov    -0x2c(%ebp),%eax
  100818:	83 e0 0f             	and    $0xf,%eax
  10081b:	89 45 c4             	mov    %eax,-0x3c(%ebp)
  10081e:	8b 45 d4             	mov    -0x2c(%ebp),%eax
  100821:	c1 e8 0c             	shr    $0xc,%eax
  100824:	89 45 c0             	mov    %eax,-0x40(%ebp)
  100827:	8b 45 d8             	mov    -0x28(%ebp),%eax
  10082a:	8b 55 c8             	mov    -0x38(%ebp),%edx
  10082d:	89 50 08             	mov    %edx,0x8(%eax)
  100830:	8b 45 d8             	mov    -0x28(%ebp),%eax
  100833:	8b 55 c4             	mov    -0x3c(%ebp),%edx
  100836:	89 50 14             	mov    %edx,0x14(%eax)
  100839:	8b 45 d8             	mov    -0x28(%ebp),%eax
  10083c:	8b 55 cc             	mov    -0x34(%ebp),%edx
  10083f:	89 50 10             	mov    %edx,0x10(%eax)
  100842:	8b 45 d8             	mov    -0x28(%ebp),%eax
  100845:	8b 55 c0             	mov    -0x40(%ebp),%edx
  100848:	89 50 18             	mov    %edx,0x18(%eax)
  10084b:	8b 45 d8             	mov    -0x28(%ebp),%eax
  10084e:	c7 40 28 01 00 00 00 	movl   $0x1,0x28(%eax)
  100855:	c7 45 94 00 00 00 80 	movl   $0x80000000,-0x6c(%ebp)
  10085c:	8b 45 94             	mov    -0x6c(%ebp),%eax
  10085f:	0f a2                	cpuid  
  100861:	89 d6                	mov    %edx,%esi
  100863:	89 cf                	mov    %ecx,%edi
  100865:	89 45 a0             	mov    %eax,-0x60(%ebp)
  100868:	8b 45 a0             	mov    -0x60(%ebp),%eax
  10086b:	89 45 bc             	mov    %eax,-0x44(%ebp)
  10086e:	89 5d d0             	mov    %ebx,-0x30(%ebp)
  100871:	89 7d d0             	mov    %edi,-0x30(%ebp)
  100874:	89 75 d0             	mov    %esi,-0x30(%ebp)
  100877:	83 7d bc 00          	cmpl   $0x0,-0x44(%ebp)
  10087b:	75 08                	jne    100885 <cpuid_detect_amd+0xdd>
  10087d:	8b 45 d8             	mov    -0x28(%ebp),%eax
  100880:	e9 6a 01 00 00       	jmp    1009ef <cpuid_detect_amd+0x247>
  100885:	8b 45 d8             	mov    -0x28(%ebp),%eax
  100888:	8b 55 bc             	mov    -0x44(%ebp),%edx
  10088b:	89 10                	mov    %edx,(%eax)
  10088d:	81 7d bc 01 00 00 80 	cmpl   $0x80000001,-0x44(%ebp)
  100894:	0f 86 16 01 00 00    	jbe    1009b0 <cpuid_detect_amd+0x208>
  10089a:	c7 04 24 41 00 00 00 	movl   $0x41,(%esp)
  1008a1:	e8 7d 06 00 00       	call   100f23 <kmalloc>
  1008a6:	89 45 b8             	mov    %eax,-0x48(%ebp)
  1008a9:	c7 44 24 08 41 00 00 	movl   $0x41,0x8(%esp)
  1008b0:	00 
  1008b1:	c7 44 24 04 00 00 00 	movl   $0x0,0x4(%esp)
  1008b8:	00 
  1008b9:	8b 45 b8             	mov    -0x48(%ebp),%eax
  1008bc:	89 04 24             	mov    %eax,(%esp)
  1008bf:	e8 28 20 00 00       	call   1028ec <memset>
  1008c4:	c6 45 e3 00          	movb   $0x0,-0x1d(%ebp)
  1008c8:	c7 45 e4 02 00 00 80 	movl   $0x80000002,-0x1c(%ebp)
  1008cf:	e9 c6 00 00 00       	jmp    10099a <cpuid_detect_amd+0x1f2>
  1008d4:	8b 45 e4             	mov    -0x1c(%ebp),%eax
  1008d7:	89 45 94             	mov    %eax,-0x6c(%ebp)
  1008da:	8b 45 94             	mov    -0x6c(%ebp),%eax
  1008dd:	0f a2                	cpuid  
  1008df:	89 d6                	mov    %edx,%esi
  1008e1:	89 cf                	mov    %ecx,%edi
  1008e3:	89 45 9c             	mov    %eax,-0x64(%ebp)
  1008e6:	8b 45 9c             	mov    -0x64(%ebp),%eax
  1008e9:	89 45 d4             	mov    %eax,-0x2c(%ebp)
  1008ec:	89 5d b4             	mov    %ebx,-0x4c(%ebp)
  1008ef:	89 7d b0             	mov    %edi,-0x50(%ebp)
  1008f2:	89 75 ac             	mov    %esi,-0x54(%ebp)
  1008f5:	c7 45 dc 00 00 00 00 	movl   $0x0,-0x24(%ebp)
  1008fc:	e9 87 00 00 00       	jmp    100988 <cpuid_detect_amd+0x1e0>
  100901:	0f b6 45 e3          	movzbl -0x1d(%ebp),%eax
  100905:	03 45 dc             	add    -0x24(%ebp),%eax
  100908:	03 45 b8             	add    -0x48(%ebp),%eax
  10090b:	8b 55 dc             	mov    -0x24(%ebp),%edx
  10090e:	c1 e2 03             	shl    $0x3,%edx
  100911:	8b 5d d4             	mov    -0x2c(%ebp),%ebx
  100914:	89 de                	mov    %ebx,%esi
  100916:	89 d1                	mov    %edx,%ecx
  100918:	d3 ee                	shr    %cl,%esi
  10091a:	89 f2                	mov    %esi,%edx
  10091c:	88 10                	mov    %dl,(%eax)
  10091e:	8b 45 dc             	mov    -0x24(%ebp),%eax
  100921:	8d 50 04             	lea    0x4(%eax),%edx
  100924:	0f b6 45 e3          	movzbl -0x1d(%ebp),%eax
  100928:	01 d0                	add    %edx,%eax
  10092a:	03 45 b8             	add    -0x48(%ebp),%eax
  10092d:	8b 55 dc             	mov    -0x24(%ebp),%edx
  100930:	c1 e2 03             	shl    $0x3,%edx
  100933:	8b 5d b4             	mov    -0x4c(%ebp),%ebx
  100936:	89 de                	mov    %ebx,%esi
  100938:	89 d1                	mov    %edx,%ecx
  10093a:	d3 ee                	shr    %cl,%esi
  10093c:	89 f2                	mov    %esi,%edx
  10093e:	88 10                	mov    %dl,(%eax)
  100940:	8b 45 dc             	mov    -0x24(%ebp),%eax
  100943:	8d 50 08             	lea    0x8(%eax),%edx
  100946:	0f b6 45 e3          	movzbl -0x1d(%ebp),%eax
  10094a:	01 d0                	add    %edx,%eax
  10094c:	03 45 b8             	add    -0x48(%ebp),%eax
  10094f:	8b 55 dc             	mov    -0x24(%ebp),%edx
  100952:	c1 e2 03             	shl    $0x3,%edx
  100955:	8b 5d b0             	mov    -0x50(%ebp),%ebx
  100958:	89 de                	mov    %ebx,%esi
  10095a:	89 d1                	mov    %edx,%ecx
  10095c:	d3 ee                	shr    %cl,%esi
  10095e:	89 f2                	mov    %esi,%edx
  100960:	88 10                	mov    %dl,(%eax)
  100962:	8b 45 dc             	mov    -0x24(%ebp),%eax
  100965:	8d 50 0c             	lea    0xc(%eax),%edx
  100968:	0f b6 45 e3          	movzbl -0x1d(%ebp),%eax
  10096c:	01 d0                	add    %edx,%eax
  10096e:	03 45 b8             	add    -0x48(%ebp),%eax
  100971:	8b 55 dc             	mov    -0x24(%ebp),%edx
  100974:	c1 e2 03             	shl    $0x3,%edx
  100977:	8b 5d ac             	mov    -0x54(%ebp),%ebx
  10097a:	89 de                	mov    %ebx,%esi
  10097c:	89 d1                	mov    %edx,%ecx
  10097e:	d3 ee                	shr    %cl,%esi
  100980:	89 f2                	mov    %esi,%edx
  100982:	88 10                	mov    %dl,(%eax)
  100984:	83 45 dc 01          	addl   $0x1,-0x24(%ebp)
  100988:	83 7d dc 03          	cmpl   $0x3,-0x24(%ebp)
  10098c:	0f 8e 6f ff ff ff    	jle    100901 <cpuid_detect_amd+0x159>
  100992:	80 45 e3 10          	addb   $0x10,-0x1d(%ebp)
  100996:	83 45 e4 01          	addl   $0x1,-0x1c(%ebp)
  10099a:	81 7d e4 04 00 00 80 	cmpl   $0x80000004,-0x1c(%ebp)
  1009a1:	0f 86 2d ff ff ff    	jbe    1008d4 <cpuid_detect_amd+0x12c>
  1009a7:	8b 45 d8             	mov    -0x28(%ebp),%eax
  1009aa:	8b 55 b8             	mov    -0x48(%ebp),%edx
  1009ad:	89 50 04             	mov    %edx,0x4(%eax)
  1009b0:	81 7d bc 06 00 00 80 	cmpl   $0x80000006,-0x44(%ebp)
  1009b7:	76 33                	jbe    1009ec <cpuid_detect_amd+0x244>
  1009b9:	c7 45 94 07 00 00 80 	movl   $0x80000007,-0x6c(%ebp)
  1009c0:	8b 45 94             	mov    -0x6c(%ebp),%eax
  1009c3:	0f a2                	cpuid  
  1009c5:	89 d6                	mov    %edx,%esi
  1009c7:	89 cf                	mov    %ecx,%edi
  1009c9:	89 45 98             	mov    %eax,-0x68(%ebp)
  1009cc:	8b 45 98             	mov    -0x68(%ebp),%eax
  1009cf:	89 45 d0             	mov    %eax,-0x30(%ebp)
  1009d2:	89 5d d0             	mov    %ebx,-0x30(%ebp)
  1009d5:	89 7d d0             	mov    %edi,-0x30(%ebp)
  1009d8:	89 75 ac             	mov    %esi,-0x54(%ebp)
  1009db:	8b 45 ac             	mov    -0x54(%ebp),%eax
  1009de:	83 e0 01             	and    $0x1,%eax
  1009e1:	84 c0                	test   %al,%al
  1009e3:	74 07                	je     1009ec <cpuid_detect_amd+0x244>
  1009e5:	8b 45 d8             	mov    -0x28(%ebp),%eax
  1009e8:	c6 40 2c 01          	movb   $0x1,0x2c(%eax)
  1009ec:	8b 45 d8             	mov    -0x28(%ebp),%eax
  1009ef:	83 c4 7c             	add    $0x7c,%esp
  1009f2:	5b                   	pop    %ebx
  1009f3:	5e                   	pop    %esi
  1009f4:	5f                   	pop    %edi
  1009f5:	5d                   	pop    %ebp
  1009f6:	c3                   	ret    
	...

001009f8 <error_init>:
  1009f8:	55                   	push   %ebp
  1009f9:	89 e5                	mov    %esp,%ebp
  1009fb:	83 ec 18             	sub    $0x18,%esp
  1009fe:	c7 04 24 1f 00 00 00 	movl   $0x1f,(%esp)
  100a05:	e8 18 27 00 00       	call   103122 <terminal_setColour>
  100a0a:	e8 0d 2a 00 00       	call   10341c <terminal_clear>
  100a0f:	c7 04 24 1f 00 00 00 	movl   $0x1f,(%esp)
  100a16:	e8 07 27 00 00       	call   103122 <terminal_setColour>
  100a1b:	c7 44 24 04 02 00 00 	movl   $0x2,0x4(%esp)
  100a22:	00 
  100a23:	c7 04 24 20 00 00 00 	movl   $0x20,(%esp)
  100a2a:	e8 78 2a 00 00       	call   1034a7 <terminal_setPos>
  100a2f:	c7 04 24 84 5b 10 00 	movl   $0x105b84,(%esp)
  100a36:	e8 0e 28 00 00       	call   103249 <terminal_write_string>
  100a3b:	c7 44 24 04 04 00 00 	movl   $0x4,0x4(%esp)
  100a42:	00 
  100a43:	c7 04 24 15 00 00 00 	movl   $0x15,(%esp)
  100a4a:	e8 58 2a 00 00       	call   1034a7 <terminal_setPos>
  100a4f:	c7 04 24 94 5b 10 00 	movl   $0x105b94,(%esp)
  100a56:	e8 ee 27 00 00       	call   103249 <terminal_write_string>
  100a5b:	c9                   	leave  
  100a5c:	c3                   	ret    

00100a5d <error_dump_regs>:
  100a5d:	55                   	push   %ebp
  100a5e:	89 e5                	mov    %esp,%ebp
  100a60:	83 ec 68             	sub    $0x68,%esp
  100a63:	c7 44 24 04 06 00 00 	movl   $0x6,0x4(%esp)
  100a6a:	00 
  100a6b:	c7 04 24 04 00 00 00 	movl   $0x4,(%esp)
  100a72:	e8 30 2a 00 00       	call   1034a7 <terminal_setPos>
  100a77:	c7 04 24 f4 00 00 00 	movl   $0xf4,(%esp)
  100a7e:	e8 9f 26 00 00       	call   103122 <terminal_setColour>
  100a83:	8b 45 2c             	mov    0x2c(%ebp),%eax
  100a86:	c1 e0 02             	shl    $0x2,%eax
  100a89:	8d 14 c5 00 00 00 00 	lea    0x0(,%eax,8),%edx
  100a90:	89 d1                	mov    %edx,%ecx
  100a92:	29 c1                	sub    %eax,%ecx
  100a94:	89 c8                	mov    %ecx,%eax
  100a96:	05 c0 38 10 00       	add    $0x1038c0,%eax
  100a9b:	89 04 24             	mov    %eax,(%esp)
  100a9e:	e8 a6 27 00 00       	call   103249 <terminal_write_string>
  100aa3:	c7 04 24 1f 00 00 00 	movl   $0x1f,(%esp)
  100aaa:	e8 73 26 00 00       	call   103122 <terminal_setColour>
  100aaf:	c7 44 24 04 08 00 00 	movl   $0x8,0x4(%esp)
  100ab6:	00 
  100ab7:	c7 04 24 04 00 00 00 	movl   $0x4,(%esp)
  100abe:	e8 e4 29 00 00       	call   1034a7 <terminal_setPos>
  100ac3:	c7 04 24 bb 5b 10 00 	movl   $0x105bbb,(%esp)
  100aca:	e8 7a 27 00 00       	call   103249 <terminal_write_string>
  100acf:	8b 45 30             	mov    0x30(%ebp),%eax
  100ad2:	0f b6 c0             	movzbl %al,%eax
  100ad5:	89 04 24             	mov    %eax,(%esp)
  100ad8:	e8 b7 27 00 00       	call   103294 <terminal_write_byte>
  100add:	8b 45 08             	mov    0x8(%ebp),%eax
  100ae0:	89 45 ac             	mov    %eax,-0x54(%ebp)
  100ae3:	8b 45 0c             	mov    0xc(%ebp),%eax
  100ae6:	89 45 b0             	mov    %eax,-0x50(%ebp)
  100ae9:	8b 45 10             	mov    0x10(%ebp),%eax
  100aec:	89 45 b4             	mov    %eax,-0x4c(%ebp)
  100aef:	8b 45 14             	mov    0x14(%ebp),%eax
  100af2:	89 45 b8             	mov    %eax,-0x48(%ebp)
  100af5:	8b 45 18             	mov    0x18(%ebp),%eax
  100af8:	89 45 bc             	mov    %eax,-0x44(%ebp)
  100afb:	8b 45 1c             	mov    0x1c(%ebp),%eax
  100afe:	89 45 c0             	mov    %eax,-0x40(%ebp)
  100b01:	8b 45 20             	mov    0x20(%ebp),%eax
  100b04:	89 45 c4             	mov    %eax,-0x3c(%ebp)
  100b07:	8b 45 24             	mov    0x24(%ebp),%eax
  100b0a:	89 45 c8             	mov    %eax,-0x38(%ebp)
  100b0d:	8b 45 28             	mov    0x28(%ebp),%eax
  100b10:	89 45 cc             	mov    %eax,-0x34(%ebp)
  100b13:	8b 45 34             	mov    0x34(%ebp),%eax
  100b16:	89 45 d0             	mov    %eax,-0x30(%ebp)
  100b19:	8b 45 38             	mov    0x38(%ebp),%eax
  100b1c:	89 45 d4             	mov    %eax,-0x2c(%ebp)
  100b1f:	8b 45 3c             	mov    0x3c(%ebp),%eax
  100b22:	89 45 d8             	mov    %eax,-0x28(%ebp)
  100b25:	8b 45 40             	mov    0x40(%ebp),%eax
  100b28:	89 45 dc             	mov    %eax,-0x24(%ebp)
  100b2b:	8b 45 44             	mov    0x44(%ebp),%eax
  100b2e:	89 45 e0             	mov    %eax,-0x20(%ebp)
  100b31:	a1 18 70 10 00       	mov    0x107018,%eax
  100b36:	89 45 e4             	mov    %eax,-0x1c(%ebp)
  100b39:	a1 14 70 10 00       	mov    0x107014,%eax
  100b3e:	89 45 e8             	mov    %eax,-0x18(%ebp)
  100b41:	a1 10 70 10 00       	mov    0x107010,%eax
  100b46:	89 45 ec             	mov    %eax,-0x14(%ebp)
  100b49:	a1 0c 70 10 00       	mov    0x10700c,%eax
  100b4e:	89 45 f0             	mov    %eax,-0x10(%ebp)
  100b51:	c6 45 f7 00          	movb   $0x0,-0x9(%ebp)
  100b55:	e9 8a 00 00 00       	jmp    100be4 <error_dump_regs+0x187>
  100b5a:	0f b6 45 f7          	movzbl -0x9(%ebp),%eax
  100b5e:	d0 e8                	shr    %al
  100b60:	83 c0 0a             	add    $0xa,%eax
  100b63:	0f b6 c0             	movzbl %al,%eax
  100b66:	89 44 24 04          	mov    %eax,0x4(%esp)
  100b6a:	c7 04 24 04 00 00 00 	movl   $0x4,(%esp)
  100b71:	e8 31 29 00 00       	call   1034a7 <terminal_setPos>
  100b76:	0f b6 45 f7          	movzbl -0x9(%ebp),%eax
  100b7a:	c1 e0 03             	shl    $0x3,%eax
  100b7d:	05 e0 3a 10 00       	add    $0x103ae0,%eax
  100b82:	89 04 24             	mov    %eax,(%esp)
  100b85:	e8 bf 26 00 00       	call   103249 <terminal_write_string>
  100b8a:	0f b6 45 f7          	movzbl -0x9(%ebp),%eax
  100b8e:	8b 44 85 ac          	mov    -0x54(%ebp,%eax,4),%eax
  100b92:	89 04 24             	mov    %eax,(%esp)
  100b95:	e8 8b 27 00 00       	call   103325 <terminal_write_dword>
  100b9a:	0f b6 45 f7          	movzbl -0x9(%ebp),%eax
  100b9e:	d0 e8                	shr    %al
  100ba0:	83 c0 0a             	add    $0xa,%eax
  100ba3:	0f b6 c0             	movzbl %al,%eax
  100ba6:	89 44 24 04          	mov    %eax,0x4(%esp)
  100baa:	c7 04 24 16 00 00 00 	movl   $0x16,(%esp)
  100bb1:	e8 f1 28 00 00       	call   1034a7 <terminal_setPos>
  100bb6:	0f b6 45 f7          	movzbl -0x9(%ebp),%eax
  100bba:	83 c0 01             	add    $0x1,%eax
  100bbd:	c1 e0 03             	shl    $0x3,%eax
  100bc0:	05 e0 3a 10 00       	add    $0x103ae0,%eax
  100bc5:	89 04 24             	mov    %eax,(%esp)
  100bc8:	e8 7c 26 00 00       	call   103249 <terminal_write_string>
  100bcd:	0f b6 45 f7          	movzbl -0x9(%ebp),%eax
  100bd1:	83 c0 01             	add    $0x1,%eax
  100bd4:	8b 44 85 ac          	mov    -0x54(%ebp,%eax,4),%eax
  100bd8:	89 04 24             	mov    %eax,(%esp)
  100bdb:	e8 45 27 00 00       	call   103325 <terminal_write_dword>
  100be0:	80 45 f7 02          	addb   $0x2,-0x9(%ebp)
  100be4:	80 7d f7 11          	cmpb   $0x11,-0x9(%ebp)
  100be8:	0f 86 6c ff ff ff    	jbe    100b5a <error_dump_regs+0xfd>
  100bee:	c9                   	leave  
  100bef:	c3                   	ret    

00100bf0 <error_handler>:
  100bf0:	55                   	push   %ebp
  100bf1:	89 e5                	mov    %esp,%ebp
  100bf3:	53                   	push   %ebx
  100bf4:	83 ec 54             	sub    $0x54,%esp
  100bf7:	0f 20 d3             	mov    %cr2,%ebx
  100bfa:	89 5d f4             	mov    %ebx,-0xc(%ebp)
  100bfd:	8b 45 f4             	mov    -0xc(%ebp),%eax
  100c00:	a3 10 70 10 00       	mov    %eax,0x107010
  100c05:	0f 20 c3             	mov    %cr0,%ebx
  100c08:	89 5d f4             	mov    %ebx,-0xc(%ebp)
  100c0b:	8b 45 f4             	mov    -0xc(%ebp),%eax
  100c0e:	a3 18 70 10 00       	mov    %eax,0x107018
  100c13:	0f 20 db             	mov    %cr3,%ebx
  100c16:	89 5d f4             	mov    %ebx,-0xc(%ebp)
  100c19:	8b 45 f4             	mov    -0xc(%ebp),%eax
  100c1c:	a3 0c 70 10 00       	mov    %eax,0x10700c
  100c21:	e8 d2 fd ff ff       	call   1009f8 <error_init>
  100c26:	8b 45 08             	mov    0x8(%ebp),%eax
  100c29:	89 04 24             	mov    %eax,(%esp)
  100c2c:	8b 45 0c             	mov    0xc(%ebp),%eax
  100c2f:	89 44 24 04          	mov    %eax,0x4(%esp)
  100c33:	8b 45 10             	mov    0x10(%ebp),%eax
  100c36:	89 44 24 08          	mov    %eax,0x8(%esp)
  100c3a:	8b 45 14             	mov    0x14(%ebp),%eax
  100c3d:	89 44 24 0c          	mov    %eax,0xc(%esp)
  100c41:	8b 45 18             	mov    0x18(%ebp),%eax
  100c44:	89 44 24 10          	mov    %eax,0x10(%esp)
  100c48:	8b 45 1c             	mov    0x1c(%ebp),%eax
  100c4b:	89 44 24 14          	mov    %eax,0x14(%esp)
  100c4f:	8b 45 20             	mov    0x20(%ebp),%eax
  100c52:	89 44 24 18          	mov    %eax,0x18(%esp)
  100c56:	8b 45 24             	mov    0x24(%ebp),%eax
  100c59:	89 44 24 1c          	mov    %eax,0x1c(%esp)
  100c5d:	8b 45 28             	mov    0x28(%ebp),%eax
  100c60:	89 44 24 20          	mov    %eax,0x20(%esp)
  100c64:	8b 45 2c             	mov    0x2c(%ebp),%eax
  100c67:	89 44 24 24          	mov    %eax,0x24(%esp)
  100c6b:	8b 45 30             	mov    0x30(%ebp),%eax
  100c6e:	89 44 24 28          	mov    %eax,0x28(%esp)
  100c72:	8b 45 34             	mov    0x34(%ebp),%eax
  100c75:	89 44 24 2c          	mov    %eax,0x2c(%esp)
  100c79:	8b 45 38             	mov    0x38(%ebp),%eax
  100c7c:	89 44 24 30          	mov    %eax,0x30(%esp)
  100c80:	8b 45 3c             	mov    0x3c(%ebp),%eax
  100c83:	89 44 24 34          	mov    %eax,0x34(%esp)
  100c87:	8b 45 40             	mov    0x40(%ebp),%eax
  100c8a:	89 44 24 38          	mov    %eax,0x38(%esp)
  100c8e:	8b 45 44             	mov    0x44(%ebp),%eax
  100c91:	89 44 24 3c          	mov    %eax,0x3c(%esp)
  100c95:	e8 c3 fd ff ff       	call   100a5d <error_dump_regs>
  100c9a:	eb fe                	jmp    100c9a <error_handler+0xaa>

00100c9c <io_outb>:
  100c9c:	55                   	push   %ebp
  100c9d:	89 e5                	mov    %esp,%ebp
  100c9f:	83 ec 08             	sub    $0x8,%esp
  100ca2:	8b 55 08             	mov    0x8(%ebp),%edx
  100ca5:	8b 45 0c             	mov    0xc(%ebp),%eax
  100ca8:	66 89 55 fc          	mov    %dx,-0x4(%ebp)
  100cac:	88 45 f8             	mov    %al,-0x8(%ebp)
  100caf:	0f b6 45 f8          	movzbl -0x8(%ebp),%eax
  100cb3:	0f b7 55 fc          	movzwl -0x4(%ebp),%edx
  100cb7:	ee                   	out    %al,(%dx)
  100cb8:	c9                   	leave  
  100cb9:	c3                   	ret    

00100cba <io_inb>:
  100cba:	55                   	push   %ebp
  100cbb:	89 e5                	mov    %esp,%ebp
  100cbd:	53                   	push   %ebx
  100cbe:	83 ec 14             	sub    $0x14,%esp
  100cc1:	8b 45 08             	mov    0x8(%ebp),%eax
  100cc4:	66 89 45 e8          	mov    %ax,-0x18(%ebp)
  100cc8:	0f b7 55 e8          	movzwl -0x18(%ebp),%edx
  100ccc:	66 89 55 ea          	mov    %dx,-0x16(%ebp)
  100cd0:	0f b7 55 ea          	movzwl -0x16(%ebp),%edx
  100cd4:	ec                   	in     (%dx),%al
  100cd5:	89 c3                	mov    %eax,%ebx
  100cd7:	88 5d fb             	mov    %bl,-0x5(%ebp)
  100cda:	0f b6 45 fb          	movzbl -0x5(%ebp),%eax
  100cde:	83 c4 14             	add    $0x14,%esp
  100ce1:	5b                   	pop    %ebx
  100ce2:	5d                   	pop    %ebp
  100ce3:	c3                   	ret    

00100ce4 <io_wait>:
  100ce4:	55                   	push   %ebp
  100ce5:	89 e5                	mov    %esp,%ebp
  100ce7:	b8 00 00 00 00       	mov    $0x0,%eax
  100cec:	e6 80                	out    %al,$0x80
  100cee:	5d                   	pop    %ebp
  100cef:	c3                   	ret    

00100cf0 <sys_dummy_irq>:
  100cf0:	cf                   	iret   
  100cf1:	eb 0d                	jmp    100d00 <sys_timer_tick_irq>
  100cf3:	90                   	nop
  100cf4:	90                   	nop
  100cf5:	90                   	nop
  100cf6:	90                   	nop
  100cf7:	90                   	nop
  100cf8:	90                   	nop
  100cf9:	90                   	nop
  100cfa:	90                   	nop
  100cfb:	90                   	nop
  100cfc:	90                   	nop
  100cfd:	90                   	nop
  100cfe:	90                   	nop
  100cff:	90                   	nop

00100d00 <sys_timer_tick_irq>:
  100d00:	60                   	pusha  
  100d01:	e8 3c 23 00 00       	call   103042 <sys_timer_tick_handler>
  100d06:	61                   	popa   
  100d07:	cf                   	iret   
  100d08:	90                   	nop
  100d09:	8d b4 26 00 00 00 00 	lea    0x0(%esi,%eiz,1),%esi

00100d10 <sys_page_fault_irq>:
  100d10:	60                   	pusha  
  100d11:	e8 5c 23 00 00       	call   103072 <sys_page_fault_handler>
  100d16:	61                   	popa   
  100d17:	cf                   	iret   
  100d18:	90                   	nop
  100d19:	8d b4 26 00 00 00 00 	lea    0x0(%esi,%eiz,1),%esi

00100d20 <isr0>:
  100d20:	fa                   	cli    
  100d21:	6a 00                	push   $0x0
  100d23:	6a 00                	push   $0x0
  100d25:	eb 79                	jmp    100da0 <error_common_stub>

00100d27 <isr1>:
  100d27:	fa                   	cli    
  100d28:	6a 00                	push   $0x0
  100d2a:	6a 01                	push   $0x1
  100d2c:	eb 72                	jmp    100da0 <error_common_stub>

00100d2e <isr2>:
  100d2e:	fa                   	cli    
  100d2f:	6a 00                	push   $0x0
  100d31:	6a 02                	push   $0x2
  100d33:	eb 6b                	jmp    100da0 <error_common_stub>

00100d35 <isr3>:
  100d35:	fa                   	cli    
  100d36:	6a 00                	push   $0x0
  100d38:	6a 03                	push   $0x3
  100d3a:	eb 64                	jmp    100da0 <error_common_stub>

00100d3c <isr4>:
  100d3c:	fa                   	cli    
  100d3d:	6a 00                	push   $0x0
  100d3f:	6a 04                	push   $0x4
  100d41:	eb 5d                	jmp    100da0 <error_common_stub>

00100d43 <isr5>:
  100d43:	fa                   	cli    
  100d44:	6a 00                	push   $0x0
  100d46:	6a 05                	push   $0x5
  100d48:	eb 56                	jmp    100da0 <error_common_stub>

00100d4a <isr6>:
  100d4a:	fa                   	cli    
  100d4b:	6a 00                	push   $0x0
  100d4d:	6a 06                	push   $0x6
  100d4f:	eb 4f                	jmp    100da0 <error_common_stub>

00100d51 <isr7>:
  100d51:	fa                   	cli    
  100d52:	6a 00                	push   $0x0
  100d54:	6a 07                	push   $0x7
  100d56:	eb 48                	jmp    100da0 <error_common_stub>

00100d58 <isr8>:
  100d58:	fa                   	cli    
  100d59:	6a 08                	push   $0x8
  100d5b:	eb 43                	jmp    100da0 <error_common_stub>

00100d5d <isr9>:
  100d5d:	fa                   	cli    
  100d5e:	6a 00                	push   $0x0
  100d60:	6a 09                	push   $0x9
  100d62:	eb 3c                	jmp    100da0 <error_common_stub>

00100d64 <isr10>:
  100d64:	fa                   	cli    
  100d65:	6a 0a                	push   $0xa
  100d67:	eb 37                	jmp    100da0 <error_common_stub>

00100d69 <isr11>:
  100d69:	fa                   	cli    
  100d6a:	6a 0b                	push   $0xb
  100d6c:	eb 32                	jmp    100da0 <error_common_stub>

00100d6e <isr12>:
  100d6e:	fa                   	cli    
  100d6f:	6a 0c                	push   $0xc
  100d71:	eb 2d                	jmp    100da0 <error_common_stub>

00100d73 <isr13>:
  100d73:	fa                   	cli    
  100d74:	6a 0d                	push   $0xd
  100d76:	eb 28                	jmp    100da0 <error_common_stub>

00100d78 <isr14>:
  100d78:	fa                   	cli    
  100d79:	6a 0e                	push   $0xe
  100d7b:	eb 23                	jmp    100da0 <error_common_stub>

00100d7d <isr15>:
  100d7d:	fa                   	cli    
  100d7e:	6a 00                	push   $0x0
  100d80:	6a 0f                	push   $0xf
  100d82:	eb 1c                	jmp    100da0 <error_common_stub>

00100d84 <isr16>:
  100d84:	fa                   	cli    
  100d85:	6a 00                	push   $0x0
  100d87:	6a 10                	push   $0x10
  100d89:	eb 15                	jmp    100da0 <error_common_stub>

00100d8b <isr17>:
  100d8b:	fa                   	cli    
  100d8c:	6a 00                	push   $0x0
  100d8e:	6a 11                	push   $0x11
  100d90:	eb 0e                	jmp    100da0 <error_common_stub>

00100d92 <isr18>:
  100d92:	fa                   	cli    
  100d93:	6a 00                	push   $0x0
  100d95:	6a 12                	push   $0x12
  100d97:	eb 07                	jmp    100da0 <error_common_stub>
  100d99:	8d b4 26 00 00 00 00 	lea    0x0(%esi,%eiz,1),%esi

00100da0 <error_common_stub>:
  100da0:	60                   	pusha  
  100da1:	66 8c d8             	mov    %ds,%ax
  100da4:	50                   	push   %eax
  100da5:	66 b8 10 00          	mov    $0x10,%ax
  100da9:	8e d8                	mov    %eax,%ds
  100dab:	8e c0                	mov    %eax,%es
  100dad:	8e e0                	mov    %eax,%fs
  100daf:	8e e8                	mov    %eax,%gs
  100db1:	e8 3a fe ff ff       	call   100bf0 <error_handler>
  100db6:	58                   	pop    %eax
  100db7:	8e d8                	mov    %eax,%ds
  100db9:	8e c0                	mov    %eax,%es
  100dbb:	8e e0                	mov    %eax,%fs
  100dbd:	8e e8                	mov    %eax,%gs
  100dbf:	61                   	popa   
  100dc0:	83 c4 08             	add    $0x8,%esp
  100dc3:	fb                   	sti    
  100dc4:	cf                   	iret   
  100dc5:	00 00                	add    %al,(%eax)
	...

00100dc8 <kmalloc_int>:
  100dc8:	55                   	push   %ebp
  100dc9:	89 e5                	mov    %esp,%ebp
  100dcb:	83 ec 38             	sub    $0x38,%esp
  100dce:	8b 45 0c             	mov    0xc(%ebp),%eax
  100dd1:	88 45 e4             	mov    %al,-0x1c(%ebp)
  100dd4:	a1 00 70 10 00       	mov    0x107000,%eax
  100dd9:	85 c0                	test   %eax,%eax
  100ddb:	74 66                	je     100e43 <kmalloc_int+0x7b>
  100ddd:	8b 15 00 70 10 00    	mov    0x107000,%edx
  100de3:	0f b6 45 e4          	movzbl -0x1c(%ebp),%eax
  100de7:	89 54 24 08          	mov    %edx,0x8(%esp)
  100deb:	89 44 24 04          	mov    %eax,0x4(%esp)
  100def:	8b 45 08             	mov    0x8(%ebp),%eax
  100df2:	89 04 24             	mov    %eax,(%esp)
  100df5:	e8 3e 05 00 00       	call   101338 <alloc>
  100dfa:	89 45 f4             	mov    %eax,-0xc(%ebp)
  100dfd:	83 7d 10 00          	cmpl   $0x0,0x10(%ebp)
  100e01:	74 3b                	je     100e3e <kmalloc_int+0x76>
  100e03:	8b 15 04 70 10 00    	mov    0x107004,%edx
  100e09:	8b 45 f4             	mov    -0xc(%ebp),%eax
  100e0c:	89 54 24 08          	mov    %edx,0x8(%esp)
  100e10:	c7 44 24 04 00 00 00 	movl   $0x0,0x4(%esp)
  100e17:	00 
  100e18:	89 04 24             	mov    %eax,(%esp)
  100e1b:	e8 f8 13 00 00       	call   102218 <paging_get_page>
  100e20:	89 45 f0             	mov    %eax,-0x10(%ebp)
  100e23:	8b 45 f0             	mov    -0x10(%ebp),%eax
  100e26:	8b 00                	mov    (%eax),%eax
  100e28:	c1 e8 0c             	shr    $0xc,%eax
  100e2b:	c1 e0 0c             	shl    $0xc,%eax
  100e2e:	8b 55 f4             	mov    -0xc(%ebp),%edx
  100e31:	81 e2 ff 0f 00 00    	and    $0xfff,%edx
  100e37:	01 c2                	add    %eax,%edx
  100e39:	8b 45 10             	mov    0x10(%ebp),%eax
  100e3c:	89 10                	mov    %edx,(%eax)
  100e3e:	8b 45 f4             	mov    -0xc(%ebp),%eax
  100e41:	eb 5b                	jmp    100e9e <kmalloc_int+0xd6>
  100e43:	80 7d e4 00          	cmpb   $0x0,-0x1c(%ebp)
  100e47:	74 2c                	je     100e75 <kmalloc_int+0xad>
  100e49:	a1 70 3b 10 00       	mov    0x103b70,%eax
  100e4e:	25 00 f0 ff ff       	and    $0xfffff000,%eax
  100e53:	85 c0                	test   %eax,%eax
  100e55:	74 1e                	je     100e75 <kmalloc_int+0xad>
  100e57:	a1 70 3b 10 00       	mov    0x103b70,%eax
  100e5c:	25 00 f0 ff ff       	and    $0xfffff000,%eax
  100e61:	a3 70 3b 10 00       	mov    %eax,0x103b70
  100e66:	a1 70 3b 10 00       	mov    0x103b70,%eax
  100e6b:	05 00 10 00 00       	add    $0x1000,%eax
  100e70:	a3 70 3b 10 00       	mov    %eax,0x103b70
  100e75:	83 7d 10 00          	cmpl   $0x0,0x10(%ebp)
  100e79:	74 0b                	je     100e86 <kmalloc_int+0xbe>
  100e7b:	8b 15 70 3b 10 00    	mov    0x103b70,%edx
  100e81:	8b 45 10             	mov    0x10(%ebp),%eax
  100e84:	89 10                	mov    %edx,(%eax)
  100e86:	a1 70 3b 10 00       	mov    0x103b70,%eax
  100e8b:	89 45 ec             	mov    %eax,-0x14(%ebp)
  100e8e:	a1 70 3b 10 00       	mov    0x103b70,%eax
  100e93:	03 45 08             	add    0x8(%ebp),%eax
  100e96:	a3 70 3b 10 00       	mov    %eax,0x103b70
  100e9b:	8b 45 ec             	mov    -0x14(%ebp),%eax
  100e9e:	c9                   	leave  
  100e9f:	c3                   	ret    

00100ea0 <kfree>:
  100ea0:	55                   	push   %ebp
  100ea1:	89 e5                	mov    %esp,%ebp
  100ea3:	83 ec 18             	sub    $0x18,%esp
  100ea6:	a1 00 70 10 00       	mov    0x107000,%eax
  100eab:	89 44 24 04          	mov    %eax,0x4(%esp)
  100eaf:	8b 45 08             	mov    0x8(%ebp),%eax
  100eb2:	89 04 24             	mov    %eax,(%esp)
  100eb5:	e8 c7 07 00 00       	call   101681 <free>
  100eba:	c9                   	leave  
  100ebb:	c3                   	ret    

00100ebc <kmalloc_a>:
  100ebc:	55                   	push   %ebp
  100ebd:	89 e5                	mov    %esp,%ebp
  100ebf:	83 ec 18             	sub    $0x18,%esp
  100ec2:	c7 44 24 08 00 00 00 	movl   $0x0,0x8(%esp)
  100ec9:	00 
  100eca:	c7 44 24 04 01 00 00 	movl   $0x1,0x4(%esp)
  100ed1:	00 
  100ed2:	8b 45 08             	mov    0x8(%ebp),%eax
  100ed5:	89 04 24             	mov    %eax,(%esp)
  100ed8:	e8 eb fe ff ff       	call   100dc8 <kmalloc_int>
  100edd:	c9                   	leave  
  100ede:	c3                   	ret    

00100edf <kmalloc_p>:
  100edf:	55                   	push   %ebp
  100ee0:	89 e5                	mov    %esp,%ebp
  100ee2:	83 ec 18             	sub    $0x18,%esp
  100ee5:	8b 45 0c             	mov    0xc(%ebp),%eax
  100ee8:	89 44 24 08          	mov    %eax,0x8(%esp)
  100eec:	c7 44 24 04 00 00 00 	movl   $0x0,0x4(%esp)
  100ef3:	00 
  100ef4:	8b 45 08             	mov    0x8(%ebp),%eax
  100ef7:	89 04 24             	mov    %eax,(%esp)
  100efa:	e8 c9 fe ff ff       	call   100dc8 <kmalloc_int>
  100eff:	c9                   	leave  
  100f00:	c3                   	ret    

00100f01 <kmalloc_ap>:
  100f01:	55                   	push   %ebp
  100f02:	89 e5                	mov    %esp,%ebp
  100f04:	83 ec 18             	sub    $0x18,%esp
  100f07:	8b 45 0c             	mov    0xc(%ebp),%eax
  100f0a:	89 44 24 08          	mov    %eax,0x8(%esp)
  100f0e:	c7 44 24 04 01 00 00 	movl   $0x1,0x4(%esp)
  100f15:	00 
  100f16:	8b 45 08             	mov    0x8(%ebp),%eax
  100f19:	89 04 24             	mov    %eax,(%esp)
  100f1c:	e8 a7 fe ff ff       	call   100dc8 <kmalloc_int>
  100f21:	c9                   	leave  
  100f22:	c3                   	ret    

00100f23 <kmalloc>:
  100f23:	55                   	push   %ebp
  100f24:	89 e5                	mov    %esp,%ebp
  100f26:	83 ec 18             	sub    $0x18,%esp
  100f29:	c7 44 24 08 00 00 00 	movl   $0x0,0x8(%esp)
  100f30:	00 
  100f31:	c7 44 24 04 00 00 00 	movl   $0x0,0x4(%esp)
  100f38:	00 
  100f39:	8b 45 08             	mov    0x8(%ebp),%eax
  100f3c:	89 04 24             	mov    %eax,(%esp)
  100f3f:	e8 84 fe ff ff       	call   100dc8 <kmalloc_int>
  100f44:	c9                   	leave  
  100f45:	c3                   	ret    

00100f46 <expand>:
  100f46:	55                   	push   %ebp
  100f47:	89 e5                	mov    %esp,%ebp
  100f49:	56                   	push   %esi
  100f4a:	53                   	push   %ebx
  100f4b:	83 ec 20             	sub    $0x20,%esp
  100f4e:	8b 45 0c             	mov    0xc(%ebp),%eax
  100f51:	8b 50 14             	mov    0x14(%eax),%edx
  100f54:	8b 45 0c             	mov    0xc(%ebp),%eax
  100f57:	8b 40 10             	mov    0x10(%eax),%eax
  100f5a:	89 d1                	mov    %edx,%ecx
  100f5c:	29 c1                	sub    %eax,%ecx
  100f5e:	89 c8                	mov    %ecx,%eax
  100f60:	3b 45 08             	cmp    0x8(%ebp),%eax
  100f63:	72 1c                	jb     100f81 <expand+0x3b>
  100f65:	c7 44 24 08 c8 5b 10 	movl   $0x105bc8,0x8(%esp)
  100f6c:	00 
  100f6d:	c7 44 24 04 39 00 00 	movl   $0x39,0x4(%esp)
  100f74:	00 
  100f75:	c7 04 24 fb 5b 10 00 	movl   $0x105bfb,(%esp)
  100f7c:	e8 07 14 00 00       	call   102388 <panic_assert>
  100f81:	8b 45 08             	mov    0x8(%ebp),%eax
  100f84:	25 00 f0 ff ff       	and    $0xfffff000,%eax
  100f89:	85 c0                	test   %eax,%eax
  100f8b:	74 0e                	je     100f9b <expand+0x55>
  100f8d:	81 65 08 00 f0 ff ff 	andl   $0xfffff000,0x8(%ebp)
  100f94:	81 45 08 00 10 00 00 	addl   $0x1000,0x8(%ebp)
  100f9b:	8b 45 0c             	mov    0xc(%ebp),%eax
  100f9e:	8b 40 10             	mov    0x10(%eax),%eax
  100fa1:	89 c2                	mov    %eax,%edx
  100fa3:	03 55 08             	add    0x8(%ebp),%edx
  100fa6:	8b 45 0c             	mov    0xc(%ebp),%eax
  100fa9:	8b 40 18             	mov    0x18(%eax),%eax
  100fac:	39 c2                	cmp    %eax,%edx
  100fae:	76 1c                	jbe    100fcc <expand+0x86>
  100fb0:	c7 44 24 08 08 5c 10 	movl   $0x105c08,0x8(%esp)
  100fb7:	00 
  100fb8:	c7 44 24 04 42 00 00 	movl   $0x42,0x4(%esp)
  100fbf:	00 
  100fc0:	c7 04 24 fb 5b 10 00 	movl   $0x105bfb,(%esp)
  100fc7:	e8 bc 13 00 00       	call   102388 <panic_assert>
  100fcc:	8b 45 0c             	mov    0xc(%ebp),%eax
  100fcf:	8b 50 14             	mov    0x14(%eax),%edx
  100fd2:	8b 45 0c             	mov    0xc(%ebp),%eax
  100fd5:	8b 40 10             	mov    0x10(%eax),%eax
  100fd8:	89 d1                	mov    %edx,%ecx
  100fda:	29 c1                	sub    %eax,%ecx
  100fdc:	89 c8                	mov    %ecx,%eax
  100fde:	89 45 f0             	mov    %eax,-0x10(%ebp)
  100fe1:	8b 45 f0             	mov    -0x10(%ebp),%eax
  100fe4:	89 45 f4             	mov    %eax,-0xc(%ebp)
  100fe7:	eb 5b                	jmp    101044 <expand+0xfe>
  100fe9:	8b 45 0c             	mov    0xc(%ebp),%eax
  100fec:	0f b6 40 1d          	movzbl 0x1d(%eax),%eax
  100ff0:	84 c0                	test   %al,%al
  100ff2:	74 07                	je     100ffb <expand+0xb5>
  100ff4:	bb 00 00 00 00       	mov    $0x0,%ebx
  100ff9:	eb 05                	jmp    101000 <expand+0xba>
  100ffb:	bb 01 00 00 00       	mov    $0x1,%ebx
  101000:	8b 45 0c             	mov    0xc(%ebp),%eax
  101003:	0f b6 40 1c          	movzbl 0x1c(%eax),%eax
  101007:	0f b6 f0             	movzbl %al,%esi
  10100a:	8b 15 04 70 10 00    	mov    0x107004,%edx
  101010:	8b 45 0c             	mov    0xc(%ebp),%eax
  101013:	8b 40 10             	mov    0x10(%eax),%eax
  101016:	03 45 f4             	add    -0xc(%ebp),%eax
  101019:	89 54 24 08          	mov    %edx,0x8(%esp)
  10101d:	c7 44 24 04 01 00 00 	movl   $0x1,0x4(%esp)
  101024:	00 
  101025:	89 04 24             	mov    %eax,(%esp)
  101028:	e8 eb 11 00 00       	call   102218 <paging_get_page>
  10102d:	89 5c 24 08          	mov    %ebx,0x8(%esp)
  101031:	89 74 24 04          	mov    %esi,0x4(%esp)
  101035:	89 04 24             	mov    %eax,(%esp)
  101038:	e8 f7 0e 00 00       	call   101f34 <alloc_frame>
  10103d:	81 45 f4 00 10 00 00 	addl   $0x1000,-0xc(%ebp)
  101044:	8b 45 f4             	mov    -0xc(%ebp),%eax
  101047:	3b 45 08             	cmp    0x8(%ebp),%eax
  10104a:	72 9d                	jb     100fe9 <expand+0xa3>
  10104c:	8b 45 0c             	mov    0xc(%ebp),%eax
  10104f:	8b 40 10             	mov    0x10(%eax),%eax
  101052:	89 c2                	mov    %eax,%edx
  101054:	03 55 08             	add    0x8(%ebp),%edx
  101057:	8b 45 0c             	mov    0xc(%ebp),%eax
  10105a:	89 50 14             	mov    %edx,0x14(%eax)
  10105d:	83 c4 20             	add    $0x20,%esp
  101060:	5b                   	pop    %ebx
  101061:	5e                   	pop    %esi
  101062:	5d                   	pop    %ebp
  101063:	c3                   	ret    

00101064 <contract>:
  101064:	55                   	push   %ebp
  101065:	89 e5                	mov    %esp,%ebp
  101067:	83 ec 28             	sub    $0x28,%esp
  10106a:	8b 45 0c             	mov    0xc(%ebp),%eax
  10106d:	8b 50 14             	mov    0x14(%eax),%edx
  101070:	8b 45 0c             	mov    0xc(%ebp),%eax
  101073:	8b 40 10             	mov    0x10(%eax),%eax
  101076:	89 d1                	mov    %edx,%ecx
  101078:	29 c1                	sub    %eax,%ecx
  10107a:	89 c8                	mov    %ecx,%eax
  10107c:	3b 45 08             	cmp    0x8(%ebp),%eax
  10107f:	77 1c                	ja     10109d <contract+0x39>
  101081:	c7 44 24 08 3c 5c 10 	movl   $0x105c3c,0x8(%esp)
  101088:	00 
  101089:	c7 44 24 04 52 00 00 	movl   $0x52,0x4(%esp)
  101090:	00 
  101091:	c7 04 24 fb 5b 10 00 	movl   $0x105bfb,(%esp)
  101098:	e8 eb 12 00 00       	call   102388 <panic_assert>
  10109d:	8b 45 08             	mov    0x8(%ebp),%eax
  1010a0:	25 00 10 00 00       	and    $0x1000,%eax
  1010a5:	85 c0                	test   %eax,%eax
  1010a7:	74 0e                	je     1010b7 <contract+0x53>
  1010a9:	81 65 08 00 10 00 00 	andl   $0x1000,0x8(%ebp)
  1010b0:	81 45 08 00 10 00 00 	addl   $0x1000,0x8(%ebp)
  1010b7:	81 7d 08 ff ff 06 00 	cmpl   $0x6ffff,0x8(%ebp)
  1010be:	77 07                	ja     1010c7 <contract+0x63>
  1010c0:	c7 45 08 00 00 07 00 	movl   $0x70000,0x8(%ebp)
  1010c7:	8b 45 0c             	mov    0xc(%ebp),%eax
  1010ca:	8b 50 14             	mov    0x14(%eax),%edx
  1010cd:	8b 45 0c             	mov    0xc(%ebp),%eax
  1010d0:	8b 40 10             	mov    0x10(%eax),%eax
  1010d3:	89 d1                	mov    %edx,%ecx
  1010d5:	29 c1                	sub    %eax,%ecx
  1010d7:	89 c8                	mov    %ecx,%eax
  1010d9:	89 45 f0             	mov    %eax,-0x10(%ebp)
  1010dc:	8b 45 f0             	mov    -0x10(%ebp),%eax
  1010df:	2d 00 10 00 00       	sub    $0x1000,%eax
  1010e4:	89 45 f4             	mov    %eax,-0xc(%ebp)
  1010e7:	eb 32                	jmp    10111b <contract+0xb7>
  1010e9:	8b 15 04 70 10 00    	mov    0x107004,%edx
  1010ef:	8b 45 0c             	mov    0xc(%ebp),%eax
  1010f2:	8b 40 10             	mov    0x10(%eax),%eax
  1010f5:	03 45 f4             	add    -0xc(%ebp),%eax
  1010f8:	89 54 24 08          	mov    %edx,0x8(%esp)
  1010fc:	c7 44 24 04 00 00 00 	movl   $0x0,0x4(%esp)
  101103:	00 
  101104:	89 04 24             	mov    %eax,(%esp)
  101107:	e8 0c 11 00 00       	call   102218 <paging_get_page>
  10110c:	89 04 24             	mov    %eax,(%esp)
  10110f:	e8 f0 0e 00 00       	call   102004 <free_frame>
  101114:	81 6d f4 00 10 00 00 	subl   $0x1000,-0xc(%ebp)
  10111b:	8b 45 08             	mov    0x8(%ebp),%eax
  10111e:	3b 45 f4             	cmp    -0xc(%ebp),%eax
  101121:	72 c6                	jb     1010e9 <contract+0x85>
  101123:	8b 45 0c             	mov    0xc(%ebp),%eax
  101126:	8b 40 10             	mov    0x10(%eax),%eax
  101129:	89 c2                	mov    %eax,%edx
  10112b:	03 55 08             	add    0x8(%ebp),%edx
  10112e:	8b 45 0c             	mov    0xc(%ebp),%eax
  101131:	89 50 14             	mov    %edx,0x14(%eax)
  101134:	8b 45 08             	mov    0x8(%ebp),%eax
  101137:	c9                   	leave  
  101138:	c3                   	ret    

00101139 <find_smallest_hole>:
  101139:	55                   	push   %ebp
  10113a:	89 e5                	mov    %esp,%ebp
  10113c:	83 ec 48             	sub    $0x48,%esp
  10113f:	8b 45 0c             	mov    0xc(%ebp),%eax
  101142:	88 45 d4             	mov    %al,-0x2c(%ebp)
  101145:	c7 45 f4 00 00 00 00 	movl   $0x0,-0xc(%ebp)
  10114c:	eb 74                	jmp    1011c2 <find_smallest_hole+0x89>
  10114e:	8b 45 10             	mov    0x10(%ebp),%eax
  101151:	89 44 24 04          	mov    %eax,0x4(%esp)
  101155:	8b 45 f4             	mov    -0xc(%ebp),%eax
  101158:	89 04 24             	mov    %eax,(%esp)
  10115b:	e8 c4 0b 00 00       	call   101d24 <lookup_ordered_array>
  101160:	89 45 ec             	mov    %eax,-0x14(%ebp)
  101163:	80 7d d4 00          	cmpb   $0x0,-0x2c(%ebp)
  101167:	74 4a                	je     1011b3 <find_smallest_hole+0x7a>
  101169:	8b 45 ec             	mov    -0x14(%ebp),%eax
  10116c:	89 45 e8             	mov    %eax,-0x18(%ebp)
  10116f:	c7 45 f0 00 00 00 00 	movl   $0x0,-0x10(%ebp)
  101176:	8b 45 e8             	mov    -0x18(%ebp),%eax
  101179:	83 c0 0c             	add    $0xc,%eax
  10117c:	25 00 f0 ff ff       	and    $0xfffff000,%eax
  101181:	85 c0                	test   %eax,%eax
  101183:	74 18                	je     10119d <find_smallest_hole+0x64>
  101185:	8b 45 e8             	mov    -0x18(%ebp),%eax
  101188:	83 c0 0c             	add    $0xc,%eax
  10118b:	89 c2                	mov    %eax,%edx
  10118d:	81 e2 ff 0f 00 00    	and    $0xfff,%edx
  101193:	b8 00 10 00 00       	mov    $0x1000,%eax
  101198:	29 d0                	sub    %edx,%eax
  10119a:	89 45 f0             	mov    %eax,-0x10(%ebp)
  10119d:	8b 45 ec             	mov    -0x14(%ebp),%eax
  1011a0:	8b 40 08             	mov    0x8(%eax),%eax
  1011a3:	2b 45 f0             	sub    -0x10(%ebp),%eax
  1011a6:	89 45 e4             	mov    %eax,-0x1c(%ebp)
  1011a9:	8b 45 08             	mov    0x8(%ebp),%eax
  1011ac:	3b 45 e4             	cmp    -0x1c(%ebp),%eax
  1011af:	7f 0d                	jg     1011be <find_smallest_hole+0x85>
  1011b1:	eb 1d                	jmp    1011d0 <find_smallest_hole+0x97>
  1011b3:	8b 45 ec             	mov    -0x14(%ebp),%eax
  1011b6:	8b 40 08             	mov    0x8(%eax),%eax
  1011b9:	3b 45 08             	cmp    0x8(%ebp),%eax
  1011bc:	73 11                	jae    1011cf <find_smallest_hole+0x96>
  1011be:	83 45 f4 01          	addl   $0x1,-0xc(%ebp)
  1011c2:	8b 45 10             	mov    0x10(%ebp),%eax
  1011c5:	8b 40 04             	mov    0x4(%eax),%eax
  1011c8:	3b 45 f4             	cmp    -0xc(%ebp),%eax
  1011cb:	77 81                	ja     10114e <find_smallest_hole+0x15>
  1011cd:	eb 01                	jmp    1011d0 <find_smallest_hole+0x97>
  1011cf:	90                   	nop
  1011d0:	8b 45 10             	mov    0x10(%ebp),%eax
  1011d3:	8b 40 04             	mov    0x4(%eax),%eax
  1011d6:	3b 45 f4             	cmp    -0xc(%ebp),%eax
  1011d9:	75 07                	jne    1011e2 <find_smallest_hole+0xa9>
  1011db:	b8 ff ff ff ff       	mov    $0xffffffff,%eax
  1011e0:	eb 03                	jmp    1011e5 <find_smallest_hole+0xac>
  1011e2:	8b 45 f4             	mov    -0xc(%ebp),%eax
  1011e5:	c9                   	leave  
  1011e6:	c3                   	ret    

001011e7 <header_t_less_than>:
  1011e7:	55                   	push   %ebp
  1011e8:	89 e5                	mov    %esp,%ebp
  1011ea:	8b 45 08             	mov    0x8(%ebp),%eax
  1011ed:	8b 50 08             	mov    0x8(%eax),%edx
  1011f0:	8b 45 0c             	mov    0xc(%ebp),%eax
  1011f3:	8b 40 08             	mov    0x8(%eax),%eax
  1011f6:	39 c2                	cmp    %eax,%edx
  1011f8:	0f 92 c0             	setb   %al
  1011fb:	5d                   	pop    %ebp
  1011fc:	c3                   	ret    

001011fd <create_heap>:
  1011fd:	55                   	push   %ebp
  1011fe:	89 e5                	mov    %esp,%ebp
  101200:	83 ec 48             	sub    $0x48,%esp
  101203:	8b 55 14             	mov    0x14(%ebp),%edx
  101206:	8b 45 18             	mov    0x18(%ebp),%eax
  101209:	88 55 d4             	mov    %dl,-0x2c(%ebp)
  10120c:	88 45 d0             	mov    %al,-0x30(%ebp)
  10120f:	c7 04 24 20 00 00 00 	movl   $0x20,(%esp)
  101216:	e8 08 fd ff ff       	call   100f23 <kmalloc>
  10121b:	89 45 f4             	mov    %eax,-0xc(%ebp)
  10121e:	8b 45 08             	mov    0x8(%ebp),%eax
  101221:	25 ff 0f 00 00       	and    $0xfff,%eax
  101226:	85 c0                	test   %eax,%eax
  101228:	74 1c                	je     101246 <create_heap+0x49>
  10122a:	c7 44 24 08 6d 5c 10 	movl   $0x105c6d,0x8(%esp)
  101231:	00 
  101232:	c7 44 24 04 92 00 00 	movl   $0x92,0x4(%esp)
  101239:	00 
  10123a:	c7 04 24 fb 5b 10 00 	movl   $0x105bfb,(%esp)
  101241:	e8 42 11 00 00       	call   102388 <panic_assert>
  101246:	8b 45 0c             	mov    0xc(%ebp),%eax
  101249:	25 ff 0f 00 00       	and    $0xfff,%eax
  10124e:	85 c0                	test   %eax,%eax
  101250:	74 1c                	je     10126e <create_heap+0x71>
  101252:	c7 44 24 08 81 5c 10 	movl   $0x105c81,0x8(%esp)
  101259:	00 
  10125a:	c7 44 24 04 93 00 00 	movl   $0x93,0x4(%esp)
  101261:	00 
  101262:	c7 04 24 fb 5b 10 00 	movl   $0x105bfb,(%esp)
  101269:	e8 1a 11 00 00       	call   102388 <panic_assert>
  10126e:	8b 55 08             	mov    0x8(%ebp),%edx
  101271:	8d 45 e0             	lea    -0x20(%ebp),%eax
  101274:	c7 44 24 0c e7 11 10 	movl   $0x1011e7,0xc(%esp)
  10127b:	00 
  10127c:	c7 44 24 08 00 00 02 	movl   $0x20000,0x8(%esp)
  101283:	00 
  101284:	89 54 24 04          	mov    %edx,0x4(%esp)
  101288:	89 04 24             	mov    %eax,(%esp)
  10128b:	e8 26 09 00 00       	call   101bb6 <place_ordered_array>
  101290:	83 ec 04             	sub    $0x4,%esp
  101293:	8b 45 f4             	mov    -0xc(%ebp),%eax
  101296:	8b 55 e0             	mov    -0x20(%ebp),%edx
  101299:	89 10                	mov    %edx,(%eax)
  10129b:	8b 55 e4             	mov    -0x1c(%ebp),%edx
  10129e:	89 50 04             	mov    %edx,0x4(%eax)
  1012a1:	8b 55 e8             	mov    -0x18(%ebp),%edx
  1012a4:	89 50 08             	mov    %edx,0x8(%eax)
  1012a7:	8b 55 ec             	mov    -0x14(%ebp),%edx
  1012aa:	89 50 0c             	mov    %edx,0xc(%eax)
  1012ad:	81 45 08 00 00 08 00 	addl   $0x80000,0x8(%ebp)
  1012b4:	8b 45 08             	mov    0x8(%ebp),%eax
  1012b7:	25 00 f0 ff ff       	and    $0xfffff000,%eax
  1012bc:	85 c0                	test   %eax,%eax
  1012be:	74 0e                	je     1012ce <create_heap+0xd1>
  1012c0:	81 65 08 00 f0 ff ff 	andl   $0xfffff000,0x8(%ebp)
  1012c7:	81 45 08 00 10 00 00 	addl   $0x1000,0x8(%ebp)
  1012ce:	8b 45 f4             	mov    -0xc(%ebp),%eax
  1012d1:	8b 55 08             	mov    0x8(%ebp),%edx
  1012d4:	89 50 10             	mov    %edx,0x10(%eax)
  1012d7:	8b 45 f4             	mov    -0xc(%ebp),%eax
  1012da:	8b 55 0c             	mov    0xc(%ebp),%edx
  1012dd:	89 50 14             	mov    %edx,0x14(%eax)
  1012e0:	8b 45 f4             	mov    -0xc(%ebp),%eax
  1012e3:	8b 55 10             	mov    0x10(%ebp),%edx
  1012e6:	89 50 18             	mov    %edx,0x18(%eax)
  1012e9:	8b 45 f4             	mov    -0xc(%ebp),%eax
  1012ec:	0f b6 55 d4          	movzbl -0x2c(%ebp),%edx
  1012f0:	88 50 1c             	mov    %dl,0x1c(%eax)
  1012f3:	8b 45 f4             	mov    -0xc(%ebp),%eax
  1012f6:	0f b6 55 d0          	movzbl -0x30(%ebp),%edx
  1012fa:	88 50 1d             	mov    %dl,0x1d(%eax)
  1012fd:	8b 45 08             	mov    0x8(%ebp),%eax
  101300:	89 45 f0             	mov    %eax,-0x10(%ebp)
  101303:	8b 45 08             	mov    0x8(%ebp),%eax
  101306:	8b 55 0c             	mov    0xc(%ebp),%edx
  101309:	29 c2                	sub    %eax,%edx
  10130b:	8b 45 f0             	mov    -0x10(%ebp),%eax
  10130e:	89 50 08             	mov    %edx,0x8(%eax)
  101311:	8b 45 f0             	mov    -0x10(%ebp),%eax
  101314:	c7 00 be ba fe ca    	movl   $0xcafebabe,(%eax)
  10131a:	8b 45 f0             	mov    -0x10(%ebp),%eax
  10131d:	c6 40 04 01          	movb   $0x1,0x4(%eax)
  101321:	8b 45 f4             	mov    -0xc(%ebp),%eax
  101324:	89 44 24 04          	mov    %eax,0x4(%esp)
  101328:	8b 45 f0             	mov    -0x10(%ebp),%eax
  10132b:	89 04 24             	mov    %eax,(%esp)
  10132e:	e8 e9 08 00 00       	call   101c1c <insert_ordered_array>
  101333:	8b 45 f4             	mov    -0xc(%ebp),%eax
  101336:	c9                   	leave  
  101337:	c3                   	ret    

00101338 <alloc>:
  101338:	55                   	push   %ebp
  101339:	89 e5                	mov    %esp,%ebp
  10133b:	53                   	push   %ebx
  10133c:	81 ec 84 00 00 00    	sub    $0x84,%esp
  101342:	8b 45 0c             	mov    0xc(%ebp),%eax
  101345:	88 45 94             	mov    %al,-0x6c(%ebp)
  101348:	8b 45 08             	mov    0x8(%ebp),%eax
  10134b:	83 c0 14             	add    $0x14,%eax
  10134e:	89 45 f4             	mov    %eax,-0xc(%ebp)
  101351:	0f b6 45 94          	movzbl -0x6c(%ebp),%eax
  101355:	8b 55 10             	mov    0x10(%ebp),%edx
  101358:	89 54 24 08          	mov    %edx,0x8(%esp)
  10135c:	89 44 24 04          	mov    %eax,0x4(%esp)
  101360:	8b 45 f4             	mov    -0xc(%ebp),%eax
  101363:	89 04 24             	mov    %eax,(%esp)
  101366:	e8 ce fd ff ff       	call   101139 <find_smallest_hole>
  10136b:	89 45 f0             	mov    %eax,-0x10(%ebp)
  10136e:	83 7d f0 ff          	cmpl   $0xffffffff,-0x10(%ebp)
  101372:	0f 85 6b 01 00 00    	jne    1014e3 <alloc+0x1ab>
  101378:	8b 45 10             	mov    0x10(%ebp),%eax
  10137b:	8b 50 14             	mov    0x14(%eax),%edx
  10137e:	8b 45 10             	mov    0x10(%ebp),%eax
  101381:	8b 40 10             	mov    0x10(%eax),%eax
  101384:	89 d1                	mov    %edx,%ecx
  101386:	29 c1                	sub    %eax,%ecx
  101388:	89 c8                	mov    %ecx,%eax
  10138a:	89 45 dc             	mov    %eax,-0x24(%ebp)
  10138d:	8b 45 10             	mov    0x10(%ebp),%eax
  101390:	8b 40 14             	mov    0x14(%eax),%eax
  101393:	89 45 d8             	mov    %eax,-0x28(%ebp)
  101396:	8b 45 f4             	mov    -0xc(%ebp),%eax
  101399:	8b 55 dc             	mov    -0x24(%ebp),%edx
  10139c:	01 c2                	add    %eax,%edx
  10139e:	8b 45 10             	mov    0x10(%ebp),%eax
  1013a1:	89 44 24 04          	mov    %eax,0x4(%esp)
  1013a5:	89 14 24             	mov    %edx,(%esp)
  1013a8:	e8 99 fb ff ff       	call   100f46 <expand>
  1013ad:	8b 45 10             	mov    0x10(%ebp),%eax
  1013b0:	8b 50 14             	mov    0x14(%eax),%edx
  1013b3:	8b 45 10             	mov    0x10(%ebp),%eax
  1013b6:	8b 40 10             	mov    0x10(%eax),%eax
  1013b9:	89 d3                	mov    %edx,%ebx
  1013bb:	29 c3                	sub    %eax,%ebx
  1013bd:	89 d8                	mov    %ebx,%eax
  1013bf:	89 45 d4             	mov    %eax,-0x2c(%ebp)
  1013c2:	c7 45 f0 00 00 00 00 	movl   $0x0,-0x10(%ebp)
  1013c9:	c7 45 ec ff ff ff ff 	movl   $0xffffffff,-0x14(%ebp)
  1013d0:	c7 45 e8 00 00 00 00 	movl   $0x0,-0x18(%ebp)
  1013d7:	eb 2d                	jmp    101406 <alloc+0xce>
  1013d9:	8b 55 10             	mov    0x10(%ebp),%edx
  1013dc:	8b 45 f0             	mov    -0x10(%ebp),%eax
  1013df:	89 54 24 04          	mov    %edx,0x4(%esp)
  1013e3:	89 04 24             	mov    %eax,(%esp)
  1013e6:	e8 39 09 00 00       	call   101d24 <lookup_ordered_array>
  1013eb:	89 45 d0             	mov    %eax,-0x30(%ebp)
  1013ee:	8b 45 d0             	mov    -0x30(%ebp),%eax
  1013f1:	3b 45 e8             	cmp    -0x18(%ebp),%eax
  1013f4:	76 0c                	jbe    101402 <alloc+0xca>
  1013f6:	8b 45 d0             	mov    -0x30(%ebp),%eax
  1013f9:	89 45 e8             	mov    %eax,-0x18(%ebp)
  1013fc:	8b 45 f0             	mov    -0x10(%ebp),%eax
  1013ff:	89 45 ec             	mov    %eax,-0x14(%ebp)
  101402:	83 45 f0 01          	addl   $0x1,-0x10(%ebp)
  101406:	8b 55 f0             	mov    -0x10(%ebp),%edx
  101409:	8b 45 10             	mov    0x10(%ebp),%eax
  10140c:	8b 40 04             	mov    0x4(%eax),%eax
  10140f:	39 c2                	cmp    %eax,%edx
  101411:	72 c6                	jb     1013d9 <alloc+0xa1>
  101413:	83 7d ec ff          	cmpl   $0xffffffff,-0x14(%ebp)
  101417:	75 59                	jne    101472 <alloc+0x13a>
  101419:	8b 45 d8             	mov    -0x28(%ebp),%eax
  10141c:	89 45 cc             	mov    %eax,-0x34(%ebp)
  10141f:	8b 45 cc             	mov    -0x34(%ebp),%eax
  101422:	c7 00 be ba fe ca    	movl   $0xcafebabe,(%eax)
  101428:	8b 45 dc             	mov    -0x24(%ebp),%eax
  10142b:	8b 55 d4             	mov    -0x2c(%ebp),%edx
  10142e:	29 c2                	sub    %eax,%edx
  101430:	8b 45 cc             	mov    -0x34(%ebp),%eax
  101433:	89 50 08             	mov    %edx,0x8(%eax)
  101436:	8b 45 cc             	mov    -0x34(%ebp),%eax
  101439:	c6 40 04 01          	movb   $0x1,0x4(%eax)
  10143d:	8b 45 cc             	mov    -0x34(%ebp),%eax
  101440:	8b 40 08             	mov    0x8(%eax),%eax
  101443:	03 45 d8             	add    -0x28(%ebp),%eax
  101446:	83 e8 08             	sub    $0x8,%eax
  101449:	89 45 c8             	mov    %eax,-0x38(%ebp)
  10144c:	8b 45 c8             	mov    -0x38(%ebp),%eax
  10144f:	c7 00 be ba fe ca    	movl   $0xcafebabe,(%eax)
  101455:	8b 45 c8             	mov    -0x38(%ebp),%eax
  101458:	8b 55 cc             	mov    -0x34(%ebp),%edx
  10145b:	89 50 04             	mov    %edx,0x4(%eax)
  10145e:	8b 45 10             	mov    0x10(%ebp),%eax
  101461:	89 44 24 04          	mov    %eax,0x4(%esp)
  101465:	8b 45 cc             	mov    -0x34(%ebp),%eax
  101468:	89 04 24             	mov    %eax,(%esp)
  10146b:	e8 ac 07 00 00       	call   101c1c <insert_ordered_array>
  101470:	eb 52                	jmp    1014c4 <alloc+0x18c>
  101472:	8b 45 10             	mov    0x10(%ebp),%eax
  101475:	89 44 24 04          	mov    %eax,0x4(%esp)
  101479:	8b 45 ec             	mov    -0x14(%ebp),%eax
  10147c:	89 04 24             	mov    %eax,(%esp)
  10147f:	e8 a0 08 00 00       	call   101d24 <lookup_ordered_array>
  101484:	89 45 c4             	mov    %eax,-0x3c(%ebp)
  101487:	8b 45 c4             	mov    -0x3c(%ebp),%eax
  10148a:	8b 40 08             	mov    0x8(%eax),%eax
  10148d:	8b 55 dc             	mov    -0x24(%ebp),%edx
  101490:	8b 4d d4             	mov    -0x2c(%ebp),%ecx
  101493:	89 cb                	mov    %ecx,%ebx
  101495:	29 d3                	sub    %edx,%ebx
  101497:	89 da                	mov    %ebx,%edx
  101499:	01 c2                	add    %eax,%edx
  10149b:	8b 45 c4             	mov    -0x3c(%ebp),%eax
  10149e:	89 50 08             	mov    %edx,0x8(%eax)
  1014a1:	8b 45 c4             	mov    -0x3c(%ebp),%eax
  1014a4:	8b 50 08             	mov    0x8(%eax),%edx
  1014a7:	8b 45 c4             	mov    -0x3c(%ebp),%eax
  1014aa:	01 d0                	add    %edx,%eax
  1014ac:	83 e8 08             	sub    $0x8,%eax
  1014af:	89 45 c0             	mov    %eax,-0x40(%ebp)
  1014b2:	8b 45 c0             	mov    -0x40(%ebp),%eax
  1014b5:	8b 55 c4             	mov    -0x3c(%ebp),%edx
  1014b8:	89 50 04             	mov    %edx,0x4(%eax)
  1014bb:	8b 45 c0             	mov    -0x40(%ebp),%eax
  1014be:	c7 00 be ba fe ca    	movl   $0xcafebabe,(%eax)
  1014c4:	0f b6 45 94          	movzbl -0x6c(%ebp),%eax
  1014c8:	8b 55 10             	mov    0x10(%ebp),%edx
  1014cb:	89 54 24 08          	mov    %edx,0x8(%esp)
  1014cf:	89 44 24 04          	mov    %eax,0x4(%esp)
  1014d3:	8b 45 08             	mov    0x8(%ebp),%eax
  1014d6:	89 04 24             	mov    %eax,(%esp)
  1014d9:	e8 5a fe ff ff       	call   101338 <alloc>
  1014de:	e9 95 01 00 00       	jmp    101678 <alloc+0x340>
  1014e3:	8b 55 10             	mov    0x10(%ebp),%edx
  1014e6:	8b 45 f0             	mov    -0x10(%ebp),%eax
  1014e9:	89 54 24 04          	mov    %edx,0x4(%esp)
  1014ed:	89 04 24             	mov    %eax,(%esp)
  1014f0:	e8 2f 08 00 00       	call   101d24 <lookup_ordered_array>
  1014f5:	89 45 bc             	mov    %eax,-0x44(%ebp)
  1014f8:	8b 45 bc             	mov    -0x44(%ebp),%eax
  1014fb:	89 45 e4             	mov    %eax,-0x1c(%ebp)
  1014fe:	8b 45 bc             	mov    -0x44(%ebp),%eax
  101501:	8b 40 08             	mov    0x8(%eax),%eax
  101504:	89 45 e0             	mov    %eax,-0x20(%ebp)
  101507:	8b 45 f4             	mov    -0xc(%ebp),%eax
  10150a:	8b 55 e0             	mov    -0x20(%ebp),%edx
  10150d:	89 d1                	mov    %edx,%ecx
  10150f:	29 c1                	sub    %eax,%ecx
  101511:	89 c8                	mov    %ecx,%eax
  101513:	83 f8 13             	cmp    $0x13,%eax
  101516:	77 15                	ja     10152d <alloc+0x1f5>
  101518:	8b 45 f4             	mov    -0xc(%ebp),%eax
  10151b:	8b 55 e0             	mov    -0x20(%ebp),%edx
  10151e:	89 d3                	mov    %edx,%ebx
  101520:	29 c3                	sub    %eax,%ebx
  101522:	89 d8                	mov    %ebx,%eax
  101524:	01 45 08             	add    %eax,0x8(%ebp)
  101527:	8b 45 e0             	mov    -0x20(%ebp),%eax
  10152a:	89 45 f4             	mov    %eax,-0xc(%ebp)
  10152d:	80 7d 94 00          	cmpb   $0x0,-0x6c(%ebp)
  101531:	74 7a                	je     1015ad <alloc+0x275>
  101533:	8b 45 e4             	mov    -0x1c(%ebp),%eax
  101536:	25 00 f0 ff ff       	and    $0xfffff000,%eax
  10153b:	85 c0                	test   %eax,%eax
  10153d:	74 6e                	je     1015ad <alloc+0x275>
  10153f:	8b 45 e4             	mov    -0x1c(%ebp),%eax
  101542:	25 00 f0 ff ff       	and    $0xfffff000,%eax
  101547:	05 f4 0f 00 00       	add    $0xff4,%eax
  10154c:	89 45 b8             	mov    %eax,-0x48(%ebp)
  10154f:	8b 45 e4             	mov    -0x1c(%ebp),%eax
  101552:	89 45 b4             	mov    %eax,-0x4c(%ebp)
  101555:	8b 45 e4             	mov    -0x1c(%ebp),%eax
  101558:	89 c2                	mov    %eax,%edx
  10155a:	81 e2 ff 0f 00 00    	and    $0xfff,%edx
  101560:	b8 f4 0f 00 00       	mov    $0xff4,%eax
  101565:	89 c1                	mov    %eax,%ecx
  101567:	29 d1                	sub    %edx,%ecx
  101569:	89 ca                	mov    %ecx,%edx
  10156b:	8b 45 b4             	mov    -0x4c(%ebp),%eax
  10156e:	89 50 08             	mov    %edx,0x8(%eax)
  101571:	8b 45 b4             	mov    -0x4c(%ebp),%eax
  101574:	c7 00 be ba fe ca    	movl   $0xcafebabe,(%eax)
  10157a:	8b 45 b4             	mov    -0x4c(%ebp),%eax
  10157d:	c6 40 04 01          	movb   $0x1,0x4(%eax)
  101581:	8b 45 b8             	mov    -0x48(%ebp),%eax
  101584:	83 e8 08             	sub    $0x8,%eax
  101587:	89 45 b0             	mov    %eax,-0x50(%ebp)
  10158a:	8b 45 b0             	mov    -0x50(%ebp),%eax
  10158d:	c7 00 be ba fe ca    	movl   $0xcafebabe,(%eax)
  101593:	8b 45 b0             	mov    -0x50(%ebp),%eax
  101596:	8b 55 b4             	mov    -0x4c(%ebp),%edx
  101599:	89 50 04             	mov    %edx,0x4(%eax)
  10159c:	8b 45 b8             	mov    -0x48(%ebp),%eax
  10159f:	89 45 e4             	mov    %eax,-0x1c(%ebp)
  1015a2:	8b 45 b4             	mov    -0x4c(%ebp),%eax
  1015a5:	8b 40 08             	mov    0x8(%eax),%eax
  1015a8:	29 45 e0             	sub    %eax,-0x20(%ebp)
  1015ab:	eb 12                	jmp    1015bf <alloc+0x287>
  1015ad:	8b 55 10             	mov    0x10(%ebp),%edx
  1015b0:	8b 45 f0             	mov    -0x10(%ebp),%eax
  1015b3:	89 54 24 04          	mov    %edx,0x4(%esp)
  1015b7:	89 04 24             	mov    %eax,(%esp)
  1015ba:	e8 a3 07 00 00       	call   101d62 <remove_ordered_array>
  1015bf:	8b 45 e4             	mov    -0x1c(%ebp),%eax
  1015c2:	89 45 ac             	mov    %eax,-0x54(%ebp)
  1015c5:	8b 45 ac             	mov    -0x54(%ebp),%eax
  1015c8:	c7 00 be ba fe ca    	movl   $0xcafebabe,(%eax)
  1015ce:	8b 45 ac             	mov    -0x54(%ebp),%eax
  1015d1:	c6 40 04 00          	movb   $0x0,0x4(%eax)
  1015d5:	8b 45 ac             	mov    -0x54(%ebp),%eax
  1015d8:	8b 55 f4             	mov    -0xc(%ebp),%edx
  1015db:	89 50 08             	mov    %edx,0x8(%eax)
  1015de:	8b 45 08             	mov    0x8(%ebp),%eax
  1015e1:	8b 55 e4             	mov    -0x1c(%ebp),%edx
  1015e4:	01 d0                	add    %edx,%eax
  1015e6:	83 c0 0c             	add    $0xc,%eax
  1015e9:	89 45 a8             	mov    %eax,-0x58(%ebp)
  1015ec:	8b 45 a8             	mov    -0x58(%ebp),%eax
  1015ef:	c7 00 be ba fe ca    	movl   $0xcafebabe,(%eax)
  1015f5:	8b 45 a8             	mov    -0x58(%ebp),%eax
  1015f8:	8b 55 ac             	mov    -0x54(%ebp),%edx
  1015fb:	89 50 04             	mov    %edx,0x4(%eax)
  1015fe:	8b 45 e0             	mov    -0x20(%ebp),%eax
  101601:	3b 45 f4             	cmp    -0xc(%ebp),%eax
  101604:	74 6c                	je     101672 <alloc+0x33a>
  101606:	8b 45 08             	mov    0x8(%ebp),%eax
  101609:	8b 55 e4             	mov    -0x1c(%ebp),%edx
  10160c:	01 d0                	add    %edx,%eax
  10160e:	83 c0 14             	add    $0x14,%eax
  101611:	89 45 a4             	mov    %eax,-0x5c(%ebp)
  101614:	8b 45 a4             	mov    -0x5c(%ebp),%eax
  101617:	c7 00 be ba fe ca    	movl   $0xcafebabe,(%eax)
  10161d:	8b 45 a4             	mov    -0x5c(%ebp),%eax
  101620:	c6 40 04 01          	movb   $0x1,0x4(%eax)
  101624:	8b 45 f4             	mov    -0xc(%ebp),%eax
  101627:	8b 55 e0             	mov    -0x20(%ebp),%edx
  10162a:	29 c2                	sub    %eax,%edx
  10162c:	8b 45 a4             	mov    -0x5c(%ebp),%eax
  10162f:	89 50 08             	mov    %edx,0x8(%eax)
  101632:	8b 45 a4             	mov    -0x5c(%ebp),%eax
  101635:	03 45 e0             	add    -0x20(%ebp),%eax
  101638:	2b 45 f4             	sub    -0xc(%ebp),%eax
  10163b:	83 e8 08             	sub    $0x8,%eax
  10163e:	89 45 a0             	mov    %eax,-0x60(%ebp)
  101641:	8b 55 a0             	mov    -0x60(%ebp),%edx
  101644:	8b 45 10             	mov    0x10(%ebp),%eax
  101647:	8b 40 14             	mov    0x14(%eax),%eax
  10164a:	39 c2                	cmp    %eax,%edx
  10164c:	73 12                	jae    101660 <alloc+0x328>
  10164e:	8b 45 a0             	mov    -0x60(%ebp),%eax
  101651:	c7 00 be ba fe ca    	movl   $0xcafebabe,(%eax)
  101657:	8b 45 a0             	mov    -0x60(%ebp),%eax
  10165a:	8b 55 a4             	mov    -0x5c(%ebp),%edx
  10165d:	89 50 04             	mov    %edx,0x4(%eax)
  101660:	8b 45 10             	mov    0x10(%ebp),%eax
  101663:	89 44 24 04          	mov    %eax,0x4(%esp)
  101667:	8b 45 a4             	mov    -0x5c(%ebp),%eax
  10166a:	89 04 24             	mov    %eax,(%esp)
  10166d:	e8 aa 05 00 00       	call   101c1c <insert_ordered_array>
  101672:	8b 45 ac             	mov    -0x54(%ebp),%eax
  101675:	83 c0 0c             	add    $0xc,%eax
  101678:	81 c4 84 00 00 00    	add    $0x84,%esp
  10167e:	5b                   	pop    %ebx
  10167f:	5d                   	pop    %ebp
  101680:	c3                   	ret    

00101681 <free>:
  101681:	55                   	push   %ebp
  101682:	89 e5                	mov    %esp,%ebp
  101684:	53                   	push   %ebx
  101685:	83 ec 44             	sub    $0x44,%esp
  101688:	83 7d 08 00          	cmpl   $0x0,0x8(%ebp)
  10168c:	0f 84 86 02 00 00    	je     101918 <free+0x297>
  101692:	8b 45 08             	mov    0x8(%ebp),%eax
  101695:	83 e8 0c             	sub    $0xc,%eax
  101698:	89 45 f4             	mov    %eax,-0xc(%ebp)
  10169b:	8b 45 f4             	mov    -0xc(%ebp),%eax
  10169e:	8b 50 08             	mov    0x8(%eax),%edx
  1016a1:	8b 45 f4             	mov    -0xc(%ebp),%eax
  1016a4:	01 d0                	add    %edx,%eax
  1016a6:	83 e8 08             	sub    $0x8,%eax
  1016a9:	89 45 f0             	mov    %eax,-0x10(%ebp)
  1016ac:	8b 45 f4             	mov    -0xc(%ebp),%eax
  1016af:	8b 00                	mov    (%eax),%eax
  1016b1:	3d be ba fe ca       	cmp    $0xcafebabe,%eax
  1016b6:	74 1c                	je     1016d4 <free+0x53>
  1016b8:	c7 44 24 08 98 5c 10 	movl   $0x105c98,0x8(%esp)
  1016bf:	00 
  1016c0:	c7 44 24 04 2b 01 00 	movl   $0x12b,0x4(%esp)
  1016c7:	00 
  1016c8:	c7 04 24 fb 5b 10 00 	movl   $0x105bfb,(%esp)
  1016cf:	e8 b4 0c 00 00       	call   102388 <panic_assert>
  1016d4:	8b 45 f0             	mov    -0x10(%ebp),%eax
  1016d7:	8b 00                	mov    (%eax),%eax
  1016d9:	3d be ba fe ca       	cmp    $0xcafebabe,%eax
  1016de:	74 1c                	je     1016fc <free+0x7b>
  1016e0:	c7 44 24 08 b4 5c 10 	movl   $0x105cb4,0x8(%esp)
  1016e7:	00 
  1016e8:	c7 44 24 04 2c 01 00 	movl   $0x12c,0x4(%esp)
  1016ef:	00 
  1016f0:	c7 04 24 fb 5b 10 00 	movl   $0x105bfb,(%esp)
  1016f7:	e8 8c 0c 00 00       	call   102388 <panic_assert>
  1016fc:	8b 45 f4             	mov    -0xc(%ebp),%eax
  1016ff:	c6 40 04 01          	movb   $0x1,0x4(%eax)
  101703:	c6 45 ef 01          	movb   $0x1,-0x11(%ebp)
  101707:	8b 45 f4             	mov    -0xc(%ebp),%eax
  10170a:	83 e8 08             	sub    $0x8,%eax
  10170d:	89 45 e0             	mov    %eax,-0x20(%ebp)
  101710:	8b 45 e0             	mov    -0x20(%ebp),%eax
  101713:	8b 00                	mov    (%eax),%eax
  101715:	3d be ba fe ca       	cmp    $0xcafebabe,%eax
  10171a:	75 3e                	jne    10175a <free+0xd9>
  10171c:	8b 45 e0             	mov    -0x20(%ebp),%eax
  10171f:	8b 40 04             	mov    0x4(%eax),%eax
  101722:	0f b6 40 04          	movzbl 0x4(%eax),%eax
  101726:	3c 01                	cmp    $0x1,%al
  101728:	75 30                	jne    10175a <free+0xd9>
  10172a:	8b 45 f4             	mov    -0xc(%ebp),%eax
  10172d:	8b 40 08             	mov    0x8(%eax),%eax
  101730:	89 45 dc             	mov    %eax,-0x24(%ebp)
  101733:	8b 45 e0             	mov    -0x20(%ebp),%eax
  101736:	8b 40 04             	mov    0x4(%eax),%eax
  101739:	89 45 f4             	mov    %eax,-0xc(%ebp)
  10173c:	8b 45 f0             	mov    -0x10(%ebp),%eax
  10173f:	8b 55 f4             	mov    -0xc(%ebp),%edx
  101742:	89 50 04             	mov    %edx,0x4(%eax)
  101745:	8b 45 f4             	mov    -0xc(%ebp),%eax
  101748:	8b 40 08             	mov    0x8(%eax),%eax
  10174b:	89 c2                	mov    %eax,%edx
  10174d:	03 55 dc             	add    -0x24(%ebp),%edx
  101750:	8b 45 f4             	mov    -0xc(%ebp),%eax
  101753:	89 50 08             	mov    %edx,0x8(%eax)
  101756:	c6 45 ef 00          	movb   $0x0,-0x11(%ebp)
  10175a:	8b 45 f0             	mov    -0x10(%ebp),%eax
  10175d:	83 c0 08             	add    $0x8,%eax
  101760:	89 45 d8             	mov    %eax,-0x28(%ebp)
  101763:	8b 45 d8             	mov    -0x28(%ebp),%eax
  101766:	8b 00                	mov    (%eax),%eax
  101768:	3d be ba fe ca       	cmp    $0xcafebabe,%eax
  10176d:	0f 85 a2 00 00 00    	jne    101815 <free+0x194>
  101773:	8b 45 d8             	mov    -0x28(%ebp),%eax
  101776:	0f b6 40 04          	movzbl 0x4(%eax),%eax
  10177a:	84 c0                	test   %al,%al
  10177c:	0f 84 93 00 00 00    	je     101815 <free+0x194>
  101782:	8b 45 f4             	mov    -0xc(%ebp),%eax
  101785:	8b 50 08             	mov    0x8(%eax),%edx
  101788:	8b 45 d8             	mov    -0x28(%ebp),%eax
  10178b:	8b 40 08             	mov    0x8(%eax),%eax
  10178e:	01 c2                	add    %eax,%edx
  101790:	8b 45 f4             	mov    -0xc(%ebp),%eax
  101793:	89 50 08             	mov    %edx,0x8(%eax)
  101796:	8b 45 d8             	mov    -0x28(%ebp),%eax
  101799:	8b 50 08             	mov    0x8(%eax),%edx
  10179c:	8b 45 d8             	mov    -0x28(%ebp),%eax
  10179f:	01 d0                	add    %edx,%eax
  1017a1:	83 e8 08             	sub    $0x8,%eax
  1017a4:	89 45 e0             	mov    %eax,-0x20(%ebp)
  1017a7:	8b 45 e0             	mov    -0x20(%ebp),%eax
  1017aa:	89 45 f0             	mov    %eax,-0x10(%ebp)
  1017ad:	c7 45 e8 00 00 00 00 	movl   $0x0,-0x18(%ebp)
  1017b4:	eb 04                	jmp    1017ba <free+0x139>
  1017b6:	83 45 e8 01          	addl   $0x1,-0x18(%ebp)
  1017ba:	8b 45 0c             	mov    0xc(%ebp),%eax
  1017bd:	8b 40 04             	mov    0x4(%eax),%eax
  1017c0:	3b 45 e8             	cmp    -0x18(%ebp),%eax
  1017c3:	76 17                	jbe    1017dc <free+0x15b>
  1017c5:	8b 45 0c             	mov    0xc(%ebp),%eax
  1017c8:	89 44 24 04          	mov    %eax,0x4(%esp)
  1017cc:	8b 45 e8             	mov    -0x18(%ebp),%eax
  1017cf:	89 04 24             	mov    %eax,(%esp)
  1017d2:	e8 4d 05 00 00       	call   101d24 <lookup_ordered_array>
  1017d7:	3b 45 d8             	cmp    -0x28(%ebp),%eax
  1017da:	75 da                	jne    1017b6 <free+0x135>
  1017dc:	8b 45 0c             	mov    0xc(%ebp),%eax
  1017df:	8b 40 04             	mov    0x4(%eax),%eax
  1017e2:	3b 45 e8             	cmp    -0x18(%ebp),%eax
  1017e5:	77 1c                	ja     101803 <free+0x182>
  1017e7:	c7 44 24 08 d0 5c 10 	movl   $0x105cd0,0x8(%esp)
  1017ee:	00 
  1017ef:	c7 44 24 04 4f 01 00 	movl   $0x14f,0x4(%esp)
  1017f6:	00 
  1017f7:	c7 04 24 fb 5b 10 00 	movl   $0x105bfb,(%esp)
  1017fe:	e8 85 0b 00 00       	call   102388 <panic_assert>
  101803:	8b 45 0c             	mov    0xc(%ebp),%eax
  101806:	89 44 24 04          	mov    %eax,0x4(%esp)
  10180a:	8b 45 e8             	mov    -0x18(%ebp),%eax
  10180d:	89 04 24             	mov    %eax,(%esp)
  101810:	e8 4d 05 00 00       	call   101d62 <remove_ordered_array>
  101815:	8b 45 f0             	mov    -0x10(%ebp),%eax
  101818:	8d 50 08             	lea    0x8(%eax),%edx
  10181b:	8b 45 0c             	mov    0xc(%ebp),%eax
  10181e:	8b 40 14             	mov    0x14(%eax),%eax
  101821:	39 c2                	cmp    %eax,%edx
  101823:	0f 85 d5 00 00 00    	jne    1018fe <free+0x27d>
  101829:	8b 45 0c             	mov    0xc(%ebp),%eax
  10182c:	8b 50 14             	mov    0x14(%eax),%edx
  10182f:	8b 45 0c             	mov    0xc(%ebp),%eax
  101832:	8b 40 10             	mov    0x10(%eax),%eax
  101835:	89 d1                	mov    %edx,%ecx
  101837:	29 c1                	sub    %eax,%ecx
  101839:	89 c8                	mov    %ecx,%eax
  10183b:	89 45 d4             	mov    %eax,-0x2c(%ebp)
  10183e:	8b 55 f4             	mov    -0xc(%ebp),%edx
  101841:	8b 45 0c             	mov    0xc(%ebp),%eax
  101844:	8b 40 10             	mov    0x10(%eax),%eax
  101847:	29 c2                	sub    %eax,%edx
  101849:	8b 45 0c             	mov    0xc(%ebp),%eax
  10184c:	89 44 24 04          	mov    %eax,0x4(%esp)
  101850:	89 14 24             	mov    %edx,(%esp)
  101853:	e8 0c f8 ff ff       	call   101064 <contract>
  101858:	89 45 d0             	mov    %eax,-0x30(%ebp)
  10185b:	8b 45 f4             	mov    -0xc(%ebp),%eax
  10185e:	8b 40 08             	mov    0x8(%eax),%eax
  101861:	8b 55 d4             	mov    -0x2c(%ebp),%edx
  101864:	8b 4d d0             	mov    -0x30(%ebp),%ecx
  101867:	89 cb                	mov    %ecx,%ebx
  101869:	29 d3                	sub    %edx,%ebx
  10186b:	89 da                	mov    %ebx,%edx
  10186d:	01 d0                	add    %edx,%eax
  10186f:	85 c0                	test   %eax,%eax
  101871:	74 3f                	je     1018b2 <free+0x231>
  101873:	8b 45 f4             	mov    -0xc(%ebp),%eax
  101876:	8b 40 08             	mov    0x8(%eax),%eax
  101879:	8b 55 d4             	mov    -0x2c(%ebp),%edx
  10187c:	8b 4d d0             	mov    -0x30(%ebp),%ecx
  10187f:	89 cb                	mov    %ecx,%ebx
  101881:	29 d3                	sub    %edx,%ebx
  101883:	89 da                	mov    %ebx,%edx
  101885:	01 c2                	add    %eax,%edx
  101887:	8b 45 f4             	mov    -0xc(%ebp),%eax
  10188a:	89 50 08             	mov    %edx,0x8(%eax)
  10188d:	8b 45 f4             	mov    -0xc(%ebp),%eax
  101890:	8b 50 08             	mov    0x8(%eax),%edx
  101893:	8b 45 f4             	mov    -0xc(%ebp),%eax
  101896:	01 d0                	add    %edx,%eax
  101898:	83 e8 08             	sub    $0x8,%eax
  10189b:	89 45 f0             	mov    %eax,-0x10(%ebp)
  10189e:	8b 45 f0             	mov    -0x10(%ebp),%eax
  1018a1:	c7 00 be ba fe ca    	movl   $0xcafebabe,(%eax)
  1018a7:	8b 45 f0             	mov    -0x10(%ebp),%eax
  1018aa:	8b 55 f4             	mov    -0xc(%ebp),%edx
  1018ad:	89 50 04             	mov    %edx,0x4(%eax)
  1018b0:	eb 4c                	jmp    1018fe <free+0x27d>
  1018b2:	c7 45 e4 00 00 00 00 	movl   $0x0,-0x1c(%ebp)
  1018b9:	eb 04                	jmp    1018bf <free+0x23e>
  1018bb:	83 45 e4 01          	addl   $0x1,-0x1c(%ebp)
  1018bf:	8b 45 0c             	mov    0xc(%ebp),%eax
  1018c2:	8b 40 04             	mov    0x4(%eax),%eax
  1018c5:	3b 45 e4             	cmp    -0x1c(%ebp),%eax
  1018c8:	76 17                	jbe    1018e1 <free+0x260>
  1018ca:	8b 45 0c             	mov    0xc(%ebp),%eax
  1018cd:	89 44 24 04          	mov    %eax,0x4(%esp)
  1018d1:	8b 45 e4             	mov    -0x1c(%ebp),%eax
  1018d4:	89 04 24             	mov    %eax,(%esp)
  1018d7:	e8 48 04 00 00       	call   101d24 <lookup_ordered_array>
  1018dc:	3b 45 d8             	cmp    -0x28(%ebp),%eax
  1018df:	75 da                	jne    1018bb <free+0x23a>
  1018e1:	8b 45 0c             	mov    0xc(%ebp),%eax
  1018e4:	8b 40 04             	mov    0x4(%eax),%eax
  1018e7:	3b 45 e4             	cmp    -0x1c(%ebp),%eax
  1018ea:	76 12                	jbe    1018fe <free+0x27d>
  1018ec:	8b 45 0c             	mov    0xc(%ebp),%eax
  1018ef:	89 44 24 04          	mov    %eax,0x4(%esp)
  1018f3:	8b 45 e4             	mov    -0x1c(%ebp),%eax
  1018f6:	89 04 24             	mov    %eax,(%esp)
  1018f9:	e8 64 04 00 00       	call   101d62 <remove_ordered_array>
  1018fe:	80 7d ef 01          	cmpb   $0x1,-0x11(%ebp)
  101902:	75 15                	jne    101919 <free+0x298>
  101904:	8b 45 0c             	mov    0xc(%ebp),%eax
  101907:	89 44 24 04          	mov    %eax,0x4(%esp)
  10190b:	8b 45 f4             	mov    -0xc(%ebp),%eax
  10190e:	89 04 24             	mov    %eax,(%esp)
  101911:	e8 06 03 00 00       	call   101c1c <insert_ordered_array>
  101916:	eb 01                	jmp    101919 <free+0x298>
  101918:	90                   	nop
  101919:	83 c4 44             	add    $0x44,%esp
  10191c:	5b                   	pop    %ebx
  10191d:	5d                   	pop    %ebp
  10191e:	c3                   	ret    
	...

00101920 <kernel_main>:
  101920:	55                   	push   %ebp
  101921:	89 e5                	mov    %esp,%ebp
  101923:	83 ec 28             	sub    $0x28,%esp
  101926:	e8 f9 0f 00 00       	call   102924 <system_init>
  10192b:	e8 08 07 00 00       	call   102038 <paging_init>
  101930:	c7 04 24 01 00 00 00 	movl   $0x1,(%esp)
  101937:	e8 3c 17 00 00       	call   103078 <terminal_initialize>
  10193c:	c7 04 24 ec 5c 10 00 	movl   $0x105cec,(%esp)
  101943:	e8 01 19 00 00       	call   103249 <terminal_write_string>
  101948:	e8 4a 16 00 00       	call   102f97 <sys_get_cpu_info>
  10194d:	89 45 f4             	mov    %eax,-0xc(%ebp)
  101950:	8b 45 f4             	mov    -0xc(%ebp),%eax
  101953:	8b 40 28             	mov    0x28(%eax),%eax
  101956:	85 c0                	test   %eax,%eax
  101958:	75 0e                	jne    101968 <kernel_main+0x48>
  10195a:	c7 04 24 03 5d 10 00 	movl   $0x105d03,(%esp)
  101961:	e8 e3 18 00 00       	call   103249 <terminal_write_string>
  101966:	eb 25                	jmp    10198d <kernel_main+0x6d>
  101968:	8b 45 f4             	mov    -0xc(%ebp),%eax
  10196b:	8b 40 28             	mov    0x28(%eax),%eax
  10196e:	83 f8 01             	cmp    $0x1,%eax
  101971:	75 0e                	jne    101981 <kernel_main+0x61>
  101973:	c7 04 24 17 5d 10 00 	movl   $0x105d17,(%esp)
  10197a:	e8 ca 18 00 00       	call   103249 <terminal_write_string>
  10197f:	eb 0c                	jmp    10198d <kernel_main+0x6d>
  101981:	c7 04 24 29 5d 10 00 	movl   $0x105d29,(%esp)
  101988:	e8 bc 18 00 00       	call   103249 <terminal_write_string>
  10198d:	c7 04 24 3f 5d 10 00 	movl   $0x105d3f,(%esp)
  101994:	e8 b0 18 00 00       	call   103249 <terminal_write_string>
  101999:	8b 45 f4             	mov    -0xc(%ebp),%eax
  10199c:	8b 40 08             	mov    0x8(%eax),%eax
  10199f:	89 04 24             	mov    %eax,(%esp)
  1019a2:	e8 7e 19 00 00       	call   103325 <terminal_write_dword>
  1019a7:	c7 04 24 48 5d 10 00 	movl   $0x105d48,(%esp)
  1019ae:	e8 96 18 00 00       	call   103249 <terminal_write_string>
  1019b3:	8b 45 f4             	mov    -0xc(%ebp),%eax
  1019b6:	8b 40 10             	mov    0x10(%eax),%eax
  1019b9:	89 04 24             	mov    %eax,(%esp)
  1019bc:	e8 64 19 00 00       	call   103325 <terminal_write_dword>
  1019c1:	c7 04 24 51 5d 10 00 	movl   $0x105d51,(%esp)
  1019c8:	e8 7c 18 00 00       	call   103249 <terminal_write_string>
  1019cd:	8b 45 f4             	mov    -0xc(%ebp),%eax
  1019d0:	8b 40 14             	mov    0x14(%eax),%eax
  1019d3:	89 04 24             	mov    %eax,(%esp)
  1019d6:	e8 4a 19 00 00       	call   103325 <terminal_write_dword>
  1019db:	c7 04 24 5d 5d 10 00 	movl   $0x105d5d,(%esp)
  1019e2:	e8 62 18 00 00       	call   103249 <terminal_write_string>
  1019e7:	8b 45 f4             	mov    -0xc(%ebp),%eax
  1019ea:	8b 40 0c             	mov    0xc(%eax),%eax
  1019ed:	89 04 24             	mov    %eax,(%esp)
  1019f0:	e8 30 19 00 00       	call   103325 <terminal_write_dword>
  1019f5:	c7 04 24 6c 5d 10 00 	movl   $0x105d6c,(%esp)
  1019fc:	e8 48 18 00 00       	call   103249 <terminal_write_string>
  101a01:	8b 45 f4             	mov    -0xc(%ebp),%eax
  101a04:	8b 40 04             	mov    0x4(%eax),%eax
  101a07:	89 04 24             	mov    %eax,(%esp)
  101a0a:	e8 3a 18 00 00       	call   103249 <terminal_write_string>
  101a0f:	c7 04 24 7d 5d 10 00 	movl   $0x105d7d,(%esp)
  101a16:	e8 2e 18 00 00       	call   103249 <terminal_write_string>
  101a1b:	8b 45 f4             	mov    -0xc(%ebp),%eax
  101a1e:	8b 40 30             	mov    0x30(%eax),%eax
  101a21:	85 c0                	test   %eax,%eax
  101a23:	74 26                	je     101a4b <kernel_main+0x12b>
  101a25:	c7 04 24 80 5d 10 00 	movl   $0x105d80,(%esp)
  101a2c:	e8 18 18 00 00       	call   103249 <terminal_write_string>
  101a31:	8b 45 f4             	mov    -0xc(%ebp),%eax
  101a34:	8b 40 30             	mov    0x30(%eax),%eax
  101a37:	89 04 24             	mov    %eax,(%esp)
  101a3a:	e8 0a 18 00 00       	call   103249 <terminal_write_string>
  101a3f:	c7 04 24 8d 5d 10 00 	movl   $0x105d8d,(%esp)
  101a46:	e8 fe 17 00 00       	call   103249 <terminal_write_string>
  101a4b:	8b 45 f4             	mov    -0xc(%ebp),%eax
  101a4e:	8b 40 34             	mov    0x34(%eax),%eax
  101a51:	85 c0                	test   %eax,%eax
  101a53:	74 26                	je     101a7b <kernel_main+0x15b>
  101a55:	c7 04 24 8f 5d 10 00 	movl   $0x105d8f,(%esp)
  101a5c:	e8 e8 17 00 00       	call   103249 <terminal_write_string>
  101a61:	8b 45 f4             	mov    -0xc(%ebp),%eax
  101a64:	8b 40 34             	mov    0x34(%eax),%eax
  101a67:	89 04 24             	mov    %eax,(%esp)
  101a6a:	e8 da 17 00 00       	call   103249 <terminal_write_string>
  101a6f:	c7 04 24 8d 5d 10 00 	movl   $0x105d8d,(%esp)
  101a76:	e8 ce 17 00 00       	call   103249 <terminal_write_string>
  101a7b:	8b 45 f4             	mov    -0xc(%ebp),%eax
  101a7e:	8b 40 38             	mov    0x38(%eax),%eax
  101a81:	85 c0                	test   %eax,%eax
  101a83:	74 26                	je     101aab <kernel_main+0x18b>
  101a85:	c7 04 24 9c 5d 10 00 	movl   $0x105d9c,(%esp)
  101a8c:	e8 b8 17 00 00       	call   103249 <terminal_write_string>
  101a91:	8b 45 f4             	mov    -0xc(%ebp),%eax
  101a94:	8b 40 38             	mov    0x38(%eax),%eax
  101a97:	89 04 24             	mov    %eax,(%esp)
  101a9a:	e8 aa 17 00 00       	call   103249 <terminal_write_string>
  101a9f:	c7 04 24 8d 5d 10 00 	movl   $0x105d8d,(%esp)
  101aa6:	e8 9e 17 00 00       	call   103249 <terminal_write_string>
  101aab:	8b 45 f4             	mov    -0xc(%ebp),%eax
  101aae:	8b 40 3c             	mov    0x3c(%eax),%eax
  101ab1:	85 c0                	test   %eax,%eax
  101ab3:	74 26                	je     101adb <kernel_main+0x1bb>
  101ab5:	c7 04 24 a9 5d 10 00 	movl   $0x105da9,(%esp)
  101abc:	e8 88 17 00 00       	call   103249 <terminal_write_string>
  101ac1:	8b 45 f4             	mov    -0xc(%ebp),%eax
  101ac4:	8b 40 3c             	mov    0x3c(%eax),%eax
  101ac7:	89 04 24             	mov    %eax,(%esp)
  101aca:	e8 7a 17 00 00       	call   103249 <terminal_write_string>
  101acf:	c7 04 24 8d 5d 10 00 	movl   $0x105d8d,(%esp)
  101ad6:	e8 6e 17 00 00       	call   103249 <terminal_write_string>
  101adb:	c7 45 f0 00 00 00 00 	movl   $0x0,-0x10(%ebp)
  101ae2:	e8 dd 14 00 00       	call   102fc4 <sys_get_ticks>
  101ae7:	89 45 f0             	mov    %eax,-0x10(%ebp)
  101aea:	c7 44 24 04 12 00 00 	movl   $0x12,0x4(%esp)
  101af1:	00 
  101af2:	c7 04 24 04 00 00 00 	movl   $0x4,(%esp)
  101af9:	e8 a9 19 00 00       	call   1034a7 <terminal_setPos>
  101afe:	8b 45 f0             	mov    -0x10(%ebp),%eax
  101b01:	89 04 24             	mov    %eax,(%esp)
  101b04:	e8 1c 18 00 00       	call   103325 <terminal_write_dword>
  101b09:	eb d7                	jmp    101ae2 <kernel_main+0x1c2>

00101b0b <kernel_init>:
  101b0b:	55                   	push   %ebp
  101b0c:	89 e5                	mov    %esp,%ebp
  101b0e:	83 ec 18             	sub    $0x18,%esp
  101b11:	ba 41 70 10 00       	mov    $0x107041,%edx
  101b16:	b8 00 70 10 00       	mov    $0x107000,%eax
  101b1b:	89 d1                	mov    %edx,%ecx
  101b1d:	29 c1                	sub    %eax,%ecx
  101b1f:	89 c8                	mov    %ecx,%eax
  101b21:	89 44 24 08          	mov    %eax,0x8(%esp)
  101b25:	c7 44 24 04 00 00 00 	movl   $0x0,0x4(%esp)
  101b2c:	00 
  101b2d:	c7 04 24 00 70 10 00 	movl   $0x107000,(%esp)
  101b34:	e8 b3 0d 00 00       	call   1028ec <memset>
  101b39:	c9                   	leave  
  101b3a:	c3                   	ret    
	...

00101b3c <standard_lessthan_predicate>:
  101b3c:	55                   	push   %ebp
  101b3d:	89 e5                	mov    %esp,%ebp
  101b3f:	8b 45 08             	mov    0x8(%ebp),%eax
  101b42:	3b 45 0c             	cmp    0xc(%ebp),%eax
  101b45:	0f 92 c0             	setb   %al
  101b48:	5d                   	pop    %ebp
  101b49:	c3                   	ret    

00101b4a <create_ordered_array>:
  101b4a:	55                   	push   %ebp
  101b4b:	89 e5                	mov    %esp,%ebp
  101b4d:	83 ec 28             	sub    $0x28,%esp
  101b50:	8b 45 0c             	mov    0xc(%ebp),%eax
  101b53:	c1 e0 02             	shl    $0x2,%eax
  101b56:	89 04 24             	mov    %eax,(%esp)
  101b59:	e8 c5 f3 ff ff       	call   100f23 <kmalloc>
  101b5e:	89 45 e8             	mov    %eax,-0x18(%ebp)
  101b61:	8b 45 0c             	mov    0xc(%ebp),%eax
  101b64:	8d 14 85 00 00 00 00 	lea    0x0(,%eax,4),%edx
  101b6b:	8b 45 e8             	mov    -0x18(%ebp),%eax
  101b6e:	89 54 24 08          	mov    %edx,0x8(%esp)
  101b72:	c7 44 24 04 00 00 00 	movl   $0x0,0x4(%esp)
  101b79:	00 
  101b7a:	89 04 24             	mov    %eax,(%esp)
  101b7d:	e8 6a 0d 00 00       	call   1028ec <memset>
  101b82:	c7 45 ec 00 00 00 00 	movl   $0x0,-0x14(%ebp)
  101b89:	8b 45 0c             	mov    0xc(%ebp),%eax
  101b8c:	89 45 f0             	mov    %eax,-0x10(%ebp)
  101b8f:	8b 45 10             	mov    0x10(%ebp),%eax
  101b92:	89 45 f4             	mov    %eax,-0xc(%ebp)
  101b95:	8b 45 08             	mov    0x8(%ebp),%eax
  101b98:	8b 55 e8             	mov    -0x18(%ebp),%edx
  101b9b:	89 10                	mov    %edx,(%eax)
  101b9d:	8b 55 ec             	mov    -0x14(%ebp),%edx
  101ba0:	89 50 04             	mov    %edx,0x4(%eax)
  101ba3:	8b 55 f0             	mov    -0x10(%ebp),%edx
  101ba6:	89 50 08             	mov    %edx,0x8(%eax)
  101ba9:	8b 55 f4             	mov    -0xc(%ebp),%edx
  101bac:	89 50 0c             	mov    %edx,0xc(%eax)
  101baf:	8b 45 08             	mov    0x8(%ebp),%eax
  101bb2:	c9                   	leave  
  101bb3:	c2 04 00             	ret    $0x4

00101bb6 <place_ordered_array>:
  101bb6:	55                   	push   %ebp
  101bb7:	89 e5                	mov    %esp,%ebp
  101bb9:	83 ec 28             	sub    $0x28,%esp
  101bbc:	8b 45 0c             	mov    0xc(%ebp),%eax
  101bbf:	89 45 e8             	mov    %eax,-0x18(%ebp)
  101bc2:	8b 45 10             	mov    0x10(%ebp),%eax
  101bc5:	8d 14 85 00 00 00 00 	lea    0x0(,%eax,4),%edx
  101bcc:	8b 45 e8             	mov    -0x18(%ebp),%eax
  101bcf:	89 54 24 08          	mov    %edx,0x8(%esp)
  101bd3:	c7 44 24 04 00 00 00 	movl   $0x0,0x4(%esp)
  101bda:	00 
  101bdb:	89 04 24             	mov    %eax,(%esp)
  101bde:	e8 09 0d 00 00       	call   1028ec <memset>
  101be3:	c7 45 ec 00 00 00 00 	movl   $0x0,-0x14(%ebp)
  101bea:	8b 45 10             	mov    0x10(%ebp),%eax
  101bed:	89 45 f0             	mov    %eax,-0x10(%ebp)
  101bf0:	8b 45 14             	mov    0x14(%ebp),%eax
  101bf3:	89 45 f4             	mov    %eax,-0xc(%ebp)
  101bf6:	8b 45 08             	mov    0x8(%ebp),%eax
  101bf9:	8b 55 e8             	mov    -0x18(%ebp),%edx
  101bfc:	89 10                	mov    %edx,(%eax)
  101bfe:	8b 55 ec             	mov    -0x14(%ebp),%edx
  101c01:	89 50 04             	mov    %edx,0x4(%eax)
  101c04:	8b 55 f0             	mov    -0x10(%ebp),%edx
  101c07:	89 50 08             	mov    %edx,0x8(%eax)
  101c0a:	8b 55 f4             	mov    -0xc(%ebp),%edx
  101c0d:	89 50 0c             	mov    %edx,0xc(%eax)
  101c10:	8b 45 08             	mov    0x8(%ebp),%eax
  101c13:	c9                   	leave  
  101c14:	c2 04 00             	ret    $0x4

00101c17 <destroy_ordered_array>:
  101c17:	55                   	push   %ebp
  101c18:	89 e5                	mov    %esp,%ebp
  101c1a:	5d                   	pop    %ebp
  101c1b:	c3                   	ret    

00101c1c <insert_ordered_array>:
  101c1c:	55                   	push   %ebp
  101c1d:	89 e5                	mov    %esp,%ebp
  101c1f:	83 ec 28             	sub    $0x28,%esp
  101c22:	8b 45 0c             	mov    0xc(%ebp),%eax
  101c25:	8b 40 0c             	mov    0xc(%eax),%eax
  101c28:	85 c0                	test   %eax,%eax
  101c2a:	75 1c                	jne    101c48 <insert_ordered_array+0x2c>
  101c2c:	c7 44 24 08 b6 5d 10 	movl   $0x105db6,0x8(%esp)
  101c33:	00 
  101c34:	c7 44 24 04 27 00 00 	movl   $0x27,0x4(%esp)
  101c3b:	00 
  101c3c:	c7 04 24 c7 5d 10 00 	movl   $0x105dc7,(%esp)
  101c43:	e8 40 07 00 00       	call   102388 <panic_assert>
  101c48:	c7 45 f4 00 00 00 00 	movl   $0x0,-0xc(%ebp)
  101c4f:	eb 04                	jmp    101c55 <insert_ordered_array+0x39>
  101c51:	83 45 f4 01          	addl   $0x1,-0xc(%ebp)
  101c55:	8b 45 0c             	mov    0xc(%ebp),%eax
  101c58:	8b 40 04             	mov    0x4(%eax),%eax
  101c5b:	3b 45 f4             	cmp    -0xc(%ebp),%eax
  101c5e:	76 25                	jbe    101c85 <insert_ordered_array+0x69>
  101c60:	8b 45 0c             	mov    0xc(%ebp),%eax
  101c63:	8b 48 0c             	mov    0xc(%eax),%ecx
  101c66:	8b 45 0c             	mov    0xc(%ebp),%eax
  101c69:	8b 00                	mov    (%eax),%eax
  101c6b:	8b 55 f4             	mov    -0xc(%ebp),%edx
  101c6e:	c1 e2 02             	shl    $0x2,%edx
  101c71:	01 d0                	add    %edx,%eax
  101c73:	8b 00                	mov    (%eax),%eax
  101c75:	8b 55 08             	mov    0x8(%ebp),%edx
  101c78:	89 54 24 04          	mov    %edx,0x4(%esp)
  101c7c:	89 04 24             	mov    %eax,(%esp)
  101c7f:	ff d1                	call   *%ecx
  101c81:	84 c0                	test   %al,%al
  101c83:	75 cc                	jne    101c51 <insert_ordered_array+0x35>
  101c85:	8b 45 0c             	mov    0xc(%ebp),%eax
  101c88:	8b 40 04             	mov    0x4(%eax),%eax
  101c8b:	3b 45 f4             	cmp    -0xc(%ebp),%eax
  101c8e:	75 24                	jne    101cb4 <insert_ordered_array+0x98>
  101c90:	8b 45 0c             	mov    0xc(%ebp),%eax
  101c93:	8b 08                	mov    (%eax),%ecx
  101c95:	8b 45 0c             	mov    0xc(%ebp),%eax
  101c98:	8b 40 04             	mov    0x4(%eax),%eax
  101c9b:	8d 14 85 00 00 00 00 	lea    0x0(,%eax,4),%edx
  101ca2:	01 d1                	add    %edx,%ecx
  101ca4:	8b 55 08             	mov    0x8(%ebp),%edx
  101ca7:	89 11                	mov    %edx,(%ecx)
  101ca9:	8d 50 01             	lea    0x1(%eax),%edx
  101cac:	8b 45 0c             	mov    0xc(%ebp),%eax
  101caf:	89 50 04             	mov    %edx,0x4(%eax)
  101cb2:	eb 6e                	jmp    101d22 <insert_ordered_array+0x106>
  101cb4:	8b 45 0c             	mov    0xc(%ebp),%eax
  101cb7:	8b 00                	mov    (%eax),%eax
  101cb9:	8b 55 f4             	mov    -0xc(%ebp),%edx
  101cbc:	c1 e2 02             	shl    $0x2,%edx
  101cbf:	01 d0                	add    %edx,%eax
  101cc1:	8b 00                	mov    (%eax),%eax
  101cc3:	89 45 f0             	mov    %eax,-0x10(%ebp)
  101cc6:	8b 45 0c             	mov    0xc(%ebp),%eax
  101cc9:	8b 00                	mov    (%eax),%eax
  101ccb:	8b 55 f4             	mov    -0xc(%ebp),%edx
  101cce:	c1 e2 02             	shl    $0x2,%edx
  101cd1:	01 c2                	add    %eax,%edx
  101cd3:	8b 45 08             	mov    0x8(%ebp),%eax
  101cd6:	89 02                	mov    %eax,(%edx)
  101cd8:	eb 2e                	jmp    101d08 <insert_ordered_array+0xec>
  101cda:	83 45 f4 01          	addl   $0x1,-0xc(%ebp)
  101cde:	8b 45 0c             	mov    0xc(%ebp),%eax
  101ce1:	8b 00                	mov    (%eax),%eax
  101ce3:	8b 55 f4             	mov    -0xc(%ebp),%edx
  101ce6:	c1 e2 02             	shl    $0x2,%edx
  101ce9:	01 d0                	add    %edx,%eax
  101ceb:	8b 00                	mov    (%eax),%eax
  101ced:	89 45 ec             	mov    %eax,-0x14(%ebp)
  101cf0:	8b 45 0c             	mov    0xc(%ebp),%eax
  101cf3:	8b 00                	mov    (%eax),%eax
  101cf5:	8b 55 f4             	mov    -0xc(%ebp),%edx
  101cf8:	c1 e2 02             	shl    $0x2,%edx
  101cfb:	01 c2                	add    %eax,%edx
  101cfd:	8b 45 f0             	mov    -0x10(%ebp),%eax
  101d00:	89 02                	mov    %eax,(%edx)
  101d02:	8b 45 ec             	mov    -0x14(%ebp),%eax
  101d05:	89 45 f0             	mov    %eax,-0x10(%ebp)
  101d08:	8b 45 0c             	mov    0xc(%ebp),%eax
  101d0b:	8b 40 04             	mov    0x4(%eax),%eax
  101d0e:	3b 45 f4             	cmp    -0xc(%ebp),%eax
  101d11:	77 c7                	ja     101cda <insert_ordered_array+0xbe>
  101d13:	8b 45 0c             	mov    0xc(%ebp),%eax
  101d16:	8b 40 04             	mov    0x4(%eax),%eax
  101d19:	8d 50 01             	lea    0x1(%eax),%edx
  101d1c:	8b 45 0c             	mov    0xc(%ebp),%eax
  101d1f:	89 50 04             	mov    %edx,0x4(%eax)
  101d22:	c9                   	leave  
  101d23:	c3                   	ret    

00101d24 <lookup_ordered_array>:
  101d24:	55                   	push   %ebp
  101d25:	89 e5                	mov    %esp,%ebp
  101d27:	83 ec 18             	sub    $0x18,%esp
  101d2a:	8b 45 0c             	mov    0xc(%ebp),%eax
  101d2d:	8b 40 04             	mov    0x4(%eax),%eax
  101d30:	3b 45 08             	cmp    0x8(%ebp),%eax
  101d33:	77 1c                	ja     101d51 <lookup_ordered_array+0x2d>
  101d35:	c7 44 24 08 df 5d 10 	movl   $0x105ddf,0x8(%esp)
  101d3c:	00 
  101d3d:	c7 44 24 04 3e 00 00 	movl   $0x3e,0x4(%esp)
  101d44:	00 
  101d45:	c7 04 24 c7 5d 10 00 	movl   $0x105dc7,(%esp)
  101d4c:	e8 37 06 00 00       	call   102388 <panic_assert>
  101d51:	8b 45 0c             	mov    0xc(%ebp),%eax
  101d54:	8b 00                	mov    (%eax),%eax
  101d56:	8b 55 08             	mov    0x8(%ebp),%edx
  101d59:	c1 e2 02             	shl    $0x2,%edx
  101d5c:	01 d0                	add    %edx,%eax
  101d5e:	8b 00                	mov    (%eax),%eax
  101d60:	c9                   	leave  
  101d61:	c3                   	ret    

00101d62 <remove_ordered_array>:
  101d62:	55                   	push   %ebp
  101d63:	89 e5                	mov    %esp,%ebp
  101d65:	eb 25                	jmp    101d8c <remove_ordered_array+0x2a>
  101d67:	8b 45 0c             	mov    0xc(%ebp),%eax
  101d6a:	8b 00                	mov    (%eax),%eax
  101d6c:	8b 55 08             	mov    0x8(%ebp),%edx
  101d6f:	c1 e2 02             	shl    $0x2,%edx
  101d72:	01 c2                	add    %eax,%edx
  101d74:	8b 45 0c             	mov    0xc(%ebp),%eax
  101d77:	8b 00                	mov    (%eax),%eax
  101d79:	8b 4d 08             	mov    0x8(%ebp),%ecx
  101d7c:	83 c1 01             	add    $0x1,%ecx
  101d7f:	c1 e1 02             	shl    $0x2,%ecx
  101d82:	01 c8                	add    %ecx,%eax
  101d84:	8b 00                	mov    (%eax),%eax
  101d86:	89 02                	mov    %eax,(%edx)
  101d88:	83 45 08 01          	addl   $0x1,0x8(%ebp)
  101d8c:	8b 45 0c             	mov    0xc(%ebp),%eax
  101d8f:	8b 40 04             	mov    0x4(%eax),%eax
  101d92:	3b 45 08             	cmp    0x8(%ebp),%eax
  101d95:	77 d0                	ja     101d67 <remove_ordered_array+0x5>
  101d97:	8b 45 0c             	mov    0xc(%ebp),%eax
  101d9a:	8b 40 04             	mov    0x4(%eax),%eax
  101d9d:	8d 50 ff             	lea    -0x1(%eax),%edx
  101da0:	8b 45 0c             	mov    0xc(%ebp),%eax
  101da3:	89 50 04             	mov    %edx,0x4(%eax)
  101da6:	5d                   	pop    %ebp
  101da7:	c3                   	ret    

00101da8 <set_frame>:
  101da8:	55                   	push   %ebp
  101da9:	89 e5                	mov    %esp,%ebp
  101dab:	57                   	push   %edi
  101dac:	56                   	push   %esi
  101dad:	53                   	push   %ebx
  101dae:	83 ec 10             	sub    $0x10,%esp
  101db1:	8b 45 08             	mov    0x8(%ebp),%eax
  101db4:	c1 e8 0c             	shr    $0xc,%eax
  101db7:	89 45 f0             	mov    %eax,-0x10(%ebp)
  101dba:	8b 45 f0             	mov    -0x10(%ebp),%eax
  101dbd:	c1 e8 05             	shr    $0x5,%eax
  101dc0:	89 45 ec             	mov    %eax,-0x14(%ebp)
  101dc3:	8b 45 f0             	mov    -0x10(%ebp),%eax
  101dc6:	83 e0 1f             	and    $0x1f,%eax
  101dc9:	89 45 e8             	mov    %eax,-0x18(%ebp)
  101dcc:	a1 20 70 10 00       	mov    0x107020,%eax
  101dd1:	8b 55 ec             	mov    -0x14(%ebp),%edx
  101dd4:	c1 e2 02             	shl    $0x2,%edx
  101dd7:	01 c2                	add    %eax,%edx
  101dd9:	a1 20 70 10 00       	mov    0x107020,%eax
  101dde:	8b 4d ec             	mov    -0x14(%ebp),%ecx
  101de1:	c1 e1 02             	shl    $0x2,%ecx
  101de4:	01 c8                	add    %ecx,%eax
  101de6:	8b 18                	mov    (%eax),%ebx
  101de8:	8b 45 e8             	mov    -0x18(%ebp),%eax
  101deb:	be 01 00 00 00       	mov    $0x1,%esi
  101df0:	89 f7                	mov    %esi,%edi
  101df2:	89 c1                	mov    %eax,%ecx
  101df4:	d3 e7                	shl    %cl,%edi
  101df6:	89 f8                	mov    %edi,%eax
  101df8:	09 d8                	or     %ebx,%eax
  101dfa:	89 02                	mov    %eax,(%edx)
  101dfc:	83 c4 10             	add    $0x10,%esp
  101dff:	5b                   	pop    %ebx
  101e00:	5e                   	pop    %esi
  101e01:	5f                   	pop    %edi
  101e02:	5d                   	pop    %ebp
  101e03:	c3                   	ret    

00101e04 <clear_frame>:
  101e04:	55                   	push   %ebp
  101e05:	89 e5                	mov    %esp,%ebp
  101e07:	57                   	push   %edi
  101e08:	56                   	push   %esi
  101e09:	53                   	push   %ebx
  101e0a:	83 ec 10             	sub    $0x10,%esp
  101e0d:	8b 45 08             	mov    0x8(%ebp),%eax
  101e10:	c1 e8 0c             	shr    $0xc,%eax
  101e13:	89 45 f0             	mov    %eax,-0x10(%ebp)
  101e16:	8b 45 f0             	mov    -0x10(%ebp),%eax
  101e19:	c1 e8 05             	shr    $0x5,%eax
  101e1c:	89 45 ec             	mov    %eax,-0x14(%ebp)
  101e1f:	8b 45 f0             	mov    -0x10(%ebp),%eax
  101e22:	83 e0 1f             	and    $0x1f,%eax
  101e25:	89 45 e8             	mov    %eax,-0x18(%ebp)
  101e28:	a1 20 70 10 00       	mov    0x107020,%eax
  101e2d:	8b 55 ec             	mov    -0x14(%ebp),%edx
  101e30:	c1 e2 02             	shl    $0x2,%edx
  101e33:	01 c2                	add    %eax,%edx
  101e35:	a1 20 70 10 00       	mov    0x107020,%eax
  101e3a:	8b 4d ec             	mov    -0x14(%ebp),%ecx
  101e3d:	c1 e1 02             	shl    $0x2,%ecx
  101e40:	01 c8                	add    %ecx,%eax
  101e42:	8b 18                	mov    (%eax),%ebx
  101e44:	8b 45 e8             	mov    -0x18(%ebp),%eax
  101e47:	be 01 00 00 00       	mov    $0x1,%esi
  101e4c:	89 f7                	mov    %esi,%edi
  101e4e:	89 c1                	mov    %eax,%ecx
  101e50:	d3 e7                	shl    %cl,%edi
  101e52:	89 f8                	mov    %edi,%eax
  101e54:	f7 d0                	not    %eax
  101e56:	21 d8                	and    %ebx,%eax
  101e58:	89 02                	mov    %eax,(%edx)
  101e5a:	83 c4 10             	add    $0x10,%esp
  101e5d:	5b                   	pop    %ebx
  101e5e:	5e                   	pop    %esi
  101e5f:	5f                   	pop    %edi
  101e60:	5d                   	pop    %ebp
  101e61:	c3                   	ret    

00101e62 <test_frame>:
  101e62:	55                   	push   %ebp
  101e63:	89 e5                	mov    %esp,%ebp
  101e65:	56                   	push   %esi
  101e66:	53                   	push   %ebx
  101e67:	83 ec 10             	sub    $0x10,%esp
  101e6a:	8b 45 08             	mov    0x8(%ebp),%eax
  101e6d:	c1 e8 0c             	shr    $0xc,%eax
  101e70:	89 45 f4             	mov    %eax,-0xc(%ebp)
  101e73:	8b 45 f4             	mov    -0xc(%ebp),%eax
  101e76:	c1 e8 05             	shr    $0x5,%eax
  101e79:	89 45 f0             	mov    %eax,-0x10(%ebp)
  101e7c:	8b 45 f4             	mov    -0xc(%ebp),%eax
  101e7f:	83 e0 1f             	and    $0x1f,%eax
  101e82:	89 45 ec             	mov    %eax,-0x14(%ebp)
  101e85:	a1 20 70 10 00       	mov    0x107020,%eax
  101e8a:	8b 55 f0             	mov    -0x10(%ebp),%edx
  101e8d:	c1 e2 02             	shl    $0x2,%edx
  101e90:	01 d0                	add    %edx,%eax
  101e92:	8b 10                	mov    (%eax),%edx
  101e94:	8b 45 ec             	mov    -0x14(%ebp),%eax
  101e97:	bb 01 00 00 00       	mov    $0x1,%ebx
  101e9c:	89 de                	mov    %ebx,%esi
  101e9e:	89 c1                	mov    %eax,%ecx
  101ea0:	d3 e6                	shl    %cl,%esi
  101ea2:	89 f0                	mov    %esi,%eax
  101ea4:	21 d0                	and    %edx,%eax
  101ea6:	83 c4 10             	add    $0x10,%esp
  101ea9:	5b                   	pop    %ebx
  101eaa:	5e                   	pop    %esi
  101eab:	5d                   	pop    %ebp
  101eac:	c3                   	ret    

00101ead <first_frame>:
  101ead:	55                   	push   %ebp
  101eae:	89 e5                	mov    %esp,%ebp
  101eb0:	53                   	push   %ebx
  101eb1:	83 ec 10             	sub    $0x10,%esp
  101eb4:	c7 45 f8 00 00 00 00 	movl   $0x0,-0x8(%ebp)
  101ebb:	eb 5f                	jmp    101f1c <first_frame+0x6f>
  101ebd:	a1 20 70 10 00       	mov    0x107020,%eax
  101ec2:	8b 55 f8             	mov    -0x8(%ebp),%edx
  101ec5:	c1 e2 02             	shl    $0x2,%edx
  101ec8:	01 d0                	add    %edx,%eax
  101eca:	8b 00                	mov    (%eax),%eax
  101ecc:	83 f8 ff             	cmp    $0xffffffff,%eax
  101ecf:	74 47                	je     101f18 <first_frame+0x6b>
  101ed1:	c7 45 f4 00 00 00 00 	movl   $0x0,-0xc(%ebp)
  101ed8:	eb 38                	jmp    101f12 <first_frame+0x65>
  101eda:	8b 45 f4             	mov    -0xc(%ebp),%eax
  101edd:	ba 01 00 00 00       	mov    $0x1,%edx
  101ee2:	89 d3                	mov    %edx,%ebx
  101ee4:	89 c1                	mov    %eax,%ecx
  101ee6:	d3 e3                	shl    %cl,%ebx
  101ee8:	89 d8                	mov    %ebx,%eax
  101eea:	89 45 f0             	mov    %eax,-0x10(%ebp)
  101eed:	a1 20 70 10 00       	mov    0x107020,%eax
  101ef2:	8b 55 f8             	mov    -0x8(%ebp),%edx
  101ef5:	c1 e2 02             	shl    $0x2,%edx
  101ef8:	01 d0                	add    %edx,%eax
  101efa:	8b 00                	mov    (%eax),%eax
  101efc:	23 45 f0             	and    -0x10(%ebp),%eax
  101eff:	85 c0                	test   %eax,%eax
  101f01:	75 0b                	jne    101f0e <first_frame+0x61>
  101f03:	8b 45 f8             	mov    -0x8(%ebp),%eax
  101f06:	c1 e0 05             	shl    $0x5,%eax
  101f09:	03 45 f4             	add    -0xc(%ebp),%eax
  101f0c:	eb 20                	jmp    101f2e <first_frame+0x81>
  101f0e:	83 45 f4 01          	addl   $0x1,-0xc(%ebp)
  101f12:	83 7d f4 1f          	cmpl   $0x1f,-0xc(%ebp)
  101f16:	76 c2                	jbe    101eda <first_frame+0x2d>
  101f18:	83 45 f8 01          	addl   $0x1,-0x8(%ebp)
  101f1c:	a1 1c 70 10 00       	mov    0x10701c,%eax
  101f21:	c1 e8 05             	shr    $0x5,%eax
  101f24:	3b 45 f8             	cmp    -0x8(%ebp),%eax
  101f27:	77 94                	ja     101ebd <first_frame+0x10>
  101f29:	b8 ff ff ff ff       	mov    $0xffffffff,%eax
  101f2e:	83 c4 10             	add    $0x10,%esp
  101f31:	5b                   	pop    %ebx
  101f32:	5d                   	pop    %ebp
  101f33:	c3                   	ret    

00101f34 <alloc_frame>:
  101f34:	55                   	push   %ebp
  101f35:	89 e5                	mov    %esp,%ebp
  101f37:	83 ec 38             	sub    $0x38,%esp
  101f3a:	8b 55 0c             	mov    0xc(%ebp),%edx
  101f3d:	8b 45 10             	mov    0x10(%ebp),%eax
  101f40:	88 55 e4             	mov    %dl,-0x1c(%ebp)
  101f43:	88 45 e0             	mov    %al,-0x20(%ebp)
  101f46:	8b 45 08             	mov    0x8(%ebp),%eax
  101f49:	8b 00                	mov    (%eax),%eax
  101f4b:	25 00 f0 ff ff       	and    $0xfffff000,%eax
  101f50:	85 c0                	test   %eax,%eax
  101f52:	0f 85 a9 00 00 00    	jne    102001 <alloc_frame+0xcd>
  101f58:	e8 50 ff ff ff       	call   101ead <first_frame>
  101f5d:	89 45 f4             	mov    %eax,-0xc(%ebp)
  101f60:	83 7d f4 ff          	cmpl   $0xffffffff,-0xc(%ebp)
  101f64:	75 1c                	jne    101f82 <alloc_frame+0x4e>
  101f66:	c7 44 24 08 54 00 00 	movl   $0x54,0x8(%esp)
  101f6d:	00 
  101f6e:	c7 44 24 04 ef 5d 10 	movl   $0x105def,0x4(%esp)
  101f75:	00 
  101f76:	c7 04 24 fc 5d 10 00 	movl   $0x105dfc,(%esp)
  101f7d:	e8 6c 04 00 00       	call   1023ee <panic>
  101f82:	8b 45 f4             	mov    -0xc(%ebp),%eax
  101f85:	c1 e0 0c             	shl    $0xc,%eax
  101f88:	89 04 24             	mov    %eax,(%esp)
  101f8b:	e8 18 fe ff ff       	call   101da8 <set_frame>
  101f90:	8b 45 08             	mov    0x8(%ebp),%eax
  101f93:	0f b6 10             	movzbl (%eax),%edx
  101f96:	83 ca 01             	or     $0x1,%edx
  101f99:	88 10                	mov    %dl,(%eax)
  101f9b:	0f b6 45 e0          	movzbl -0x20(%ebp),%eax
  101f9f:	89 c2                	mov    %eax,%edx
  101fa1:	83 e2 01             	and    $0x1,%edx
  101fa4:	8b 45 08             	mov    0x8(%ebp),%eax
  101fa7:	83 e2 01             	and    $0x1,%edx
  101faa:	8d 0c 12             	lea    (%edx,%edx,1),%ecx
  101fad:	0f b6 10             	movzbl (%eax),%edx
  101fb0:	83 e2 fd             	and    $0xfffffffd,%edx
  101fb3:	09 ca                	or     %ecx,%edx
  101fb5:	88 10                	mov    %dl,(%eax)
  101fb7:	80 7d e4 00          	cmpb   $0x0,-0x1c(%ebp)
  101fbb:	74 07                	je     101fc4 <alloc_frame+0x90>
  101fbd:	ba 00 00 00 00       	mov    $0x0,%edx
  101fc2:	eb 05                	jmp    101fc9 <alloc_frame+0x95>
  101fc4:	ba 01 00 00 00       	mov    $0x1,%edx
  101fc9:	8b 45 08             	mov    0x8(%ebp),%eax
  101fcc:	83 e2 01             	and    $0x1,%edx
  101fcf:	8d 0c 95 00 00 00 00 	lea    0x0(,%edx,4),%ecx
  101fd6:	0f b6 10             	movzbl (%eax),%edx
  101fd9:	83 e2 fb             	and    $0xfffffffb,%edx
  101fdc:	09 ca                	or     %ecx,%edx
  101fde:	88 10                	mov    %dl,(%eax)
  101fe0:	8b 45 f4             	mov    -0xc(%ebp),%eax
  101fe3:	89 c2                	mov    %eax,%edx
  101fe5:	81 e2 ff ff 0f 00    	and    $0xfffff,%edx
  101feb:	8b 45 08             	mov    0x8(%ebp),%eax
  101fee:	89 d1                	mov    %edx,%ecx
  101ff0:	c1 e1 0c             	shl    $0xc,%ecx
  101ff3:	8b 10                	mov    (%eax),%edx
  101ff5:	81 e2 ff 0f 00 00    	and    $0xfff,%edx
  101ffb:	09 ca                	or     %ecx,%edx
  101ffd:	89 10                	mov    %edx,(%eax)
  101fff:	eb 01                	jmp    102002 <alloc_frame+0xce>
  102001:	90                   	nop
  102002:	c9                   	leave  
  102003:	c3                   	ret    

00102004 <free_frame>:
  102004:	55                   	push   %ebp
  102005:	89 e5                	mov    %esp,%ebp
  102007:	83 ec 14             	sub    $0x14,%esp
  10200a:	8b 45 08             	mov    0x8(%ebp),%eax
  10200d:	8b 00                	mov    (%eax),%eax
  10200f:	c1 e8 0c             	shr    $0xc,%eax
  102012:	89 45 fc             	mov    %eax,-0x4(%ebp)
  102015:	83 7d fc 00          	cmpl   $0x0,-0x4(%ebp)
  102019:	74 1a                	je     102035 <free_frame+0x31>
  10201b:	8b 45 fc             	mov    -0x4(%ebp),%eax
  10201e:	89 04 24             	mov    %eax,(%esp)
  102021:	e8 de fd ff ff       	call   101e04 <clear_frame>
  102026:	8b 45 08             	mov    0x8(%ebp),%eax
  102029:	8b 10                	mov    (%eax),%edx
  10202b:	81 e2 ff 0f 00 00    	and    $0xfff,%edx
  102031:	89 10                	mov    %edx,(%eax)
  102033:	eb 01                	jmp    102036 <free_frame+0x32>
  102035:	90                   	nop
  102036:	c9                   	leave  
  102037:	c3                   	ret    

00102038 <paging_init>:
  102038:	55                   	push   %ebp
  102039:	89 e5                	mov    %esp,%ebp
  10203b:	83 ec 38             	sub    $0x38,%esp
  10203e:	c7 45 f0 00 00 00 02 	movl   $0x2000000,-0x10(%ebp)
  102045:	8b 45 f0             	mov    -0x10(%ebp),%eax
  102048:	c1 e8 0c             	shr    $0xc,%eax
  10204b:	a3 1c 70 10 00       	mov    %eax,0x10701c
  102050:	a1 1c 70 10 00       	mov    0x10701c,%eax
  102055:	c1 e8 05             	shr    $0x5,%eax
  102058:	89 04 24             	mov    %eax,(%esp)
  10205b:	e8 c3 ee ff ff       	call   100f23 <kmalloc>
  102060:	a3 20 70 10 00       	mov    %eax,0x107020
  102065:	a1 1c 70 10 00       	mov    0x10701c,%eax
  10206a:	89 c2                	mov    %eax,%edx
  10206c:	c1 ea 05             	shr    $0x5,%edx
  10206f:	a1 20 70 10 00       	mov    0x107020,%eax
  102074:	89 54 24 08          	mov    %edx,0x8(%esp)
  102078:	c7 44 24 04 00 00 00 	movl   $0x0,0x4(%esp)
  10207f:	00 
  102080:	89 04 24             	mov    %eax,(%esp)
  102083:	e8 64 08 00 00       	call   1028ec <memset>
  102088:	c7 04 24 04 20 00 00 	movl   $0x2004,(%esp)
  10208f:	e8 28 ee ff ff       	call   100ebc <kmalloc_a>
  102094:	a3 04 70 10 00       	mov    %eax,0x107004
  102099:	a1 04 70 10 00       	mov    0x107004,%eax
  10209e:	c7 44 24 08 04 20 00 	movl   $0x2004,0x8(%esp)
  1020a5:	00 
  1020a6:	c7 44 24 04 00 00 00 	movl   $0x0,0x4(%esp)
  1020ad:	00 
  1020ae:	89 04 24             	mov    %eax,(%esp)
  1020b1:	e8 36 08 00 00       	call   1028ec <memset>
  1020b6:	a1 04 70 10 00       	mov    0x107004,%eax
  1020bb:	a3 08 70 10 00       	mov    %eax,0x107008
  1020c0:	c7 45 f4 00 00 00 00 	movl   $0x0,-0xc(%ebp)
  1020c7:	c7 45 f4 00 00 00 c0 	movl   $0xc0000000,-0xc(%ebp)
  1020ce:	eb 24                	jmp    1020f4 <paging_init+0xbc>
  1020d0:	8b 15 04 70 10 00    	mov    0x107004,%edx
  1020d6:	8b 45 f4             	mov    -0xc(%ebp),%eax
  1020d9:	89 54 24 08          	mov    %edx,0x8(%esp)
  1020dd:	c7 44 24 04 01 00 00 	movl   $0x1,0x4(%esp)
  1020e4:	00 
  1020e5:	89 04 24             	mov    %eax,(%esp)
  1020e8:	e8 2b 01 00 00       	call   102218 <paging_get_page>
  1020ed:	81 45 f4 00 10 00 00 	addl   $0x1000,-0xc(%ebp)
  1020f4:	8b 45 f4             	mov    -0xc(%ebp),%eax
  1020f7:	3d ff ff 0f c0       	cmp    $0xc00fffff,%eax
  1020fc:	76 d2                	jbe    1020d0 <paging_init+0x98>
  1020fe:	c7 45 f4 00 00 00 00 	movl   $0x0,-0xc(%ebp)
  102105:	eb 3c                	jmp    102143 <paging_init+0x10b>
  102107:	8b 15 04 70 10 00    	mov    0x107004,%edx
  10210d:	8b 45 f4             	mov    -0xc(%ebp),%eax
  102110:	89 54 24 08          	mov    %edx,0x8(%esp)
  102114:	c7 44 24 04 01 00 00 	movl   $0x1,0x4(%esp)
  10211b:	00 
  10211c:	89 04 24             	mov    %eax,(%esp)
  10211f:	e8 f4 00 00 00       	call   102218 <paging_get_page>
  102124:	c7 44 24 08 00 00 00 	movl   $0x0,0x8(%esp)
  10212b:	00 
  10212c:	c7 44 24 04 00 00 00 	movl   $0x0,0x4(%esp)
  102133:	00 
  102134:	89 04 24             	mov    %eax,(%esp)
  102137:	e8 f8 fd ff ff       	call   101f34 <alloc_frame>
  10213c:	81 45 f4 00 10 00 00 	addl   $0x1000,-0xc(%ebp)
  102143:	8b 45 f4             	mov    -0xc(%ebp),%eax
  102146:	8b 15 70 3b 10 00    	mov    0x103b70,%edx
  10214c:	81 c2 00 10 00 00    	add    $0x1000,%edx
  102152:	39 d0                	cmp    %edx,%eax
  102154:	72 b1                	jb     102107 <paging_init+0xcf>
  102156:	c7 45 f4 00 00 00 c0 	movl   $0xc0000000,-0xc(%ebp)
  10215d:	eb 3c                	jmp    10219b <paging_init+0x163>
  10215f:	8b 15 04 70 10 00    	mov    0x107004,%edx
  102165:	8b 45 f4             	mov    -0xc(%ebp),%eax
  102168:	89 54 24 08          	mov    %edx,0x8(%esp)
  10216c:	c7 44 24 04 01 00 00 	movl   $0x1,0x4(%esp)
  102173:	00 
  102174:	89 04 24             	mov    %eax,(%esp)
  102177:	e8 9c 00 00 00       	call   102218 <paging_get_page>
  10217c:	c7 44 24 08 00 00 00 	movl   $0x0,0x8(%esp)
  102183:	00 
  102184:	c7 44 24 04 00 00 00 	movl   $0x0,0x4(%esp)
  10218b:	00 
  10218c:	89 04 24             	mov    %eax,(%esp)
  10218f:	e8 a0 fd ff ff       	call   101f34 <alloc_frame>
  102194:	81 45 f4 00 10 00 00 	addl   $0x1000,-0xc(%ebp)
  10219b:	8b 45 f4             	mov    -0xc(%ebp),%eax
  10219e:	3d ff ff 0f c0       	cmp    $0xc00fffff,%eax
  1021a3:	76 ba                	jbe    10215f <paging_init+0x127>
  1021a5:	a1 04 70 10 00       	mov    0x107004,%eax
  1021aa:	89 04 24             	mov    %eax,(%esp)
  1021ad:	e8 33 00 00 00       	call   1021e5 <paging_switch_directory>
  1021b2:	c7 44 24 10 00 00 00 	movl   $0x0,0x10(%esp)
  1021b9:	00 
  1021ba:	c7 44 24 0c 00 00 00 	movl   $0x0,0xc(%esp)
  1021c1:	00 
  1021c2:	c7 44 24 08 00 f0 ff 	movl   $0xcffff000,0x8(%esp)
  1021c9:	cf 
  1021ca:	c7 44 24 04 00 00 10 	movl   $0xc0100000,0x4(%esp)
  1021d1:	c0 
  1021d2:	c7 04 24 00 00 00 c0 	movl   $0xc0000000,(%esp)
  1021d9:	e8 1f f0 ff ff       	call   1011fd <create_heap>
  1021de:	a3 00 70 10 00       	mov    %eax,0x107000
  1021e3:	c9                   	leave  
  1021e4:	c3                   	ret    

001021e5 <paging_switch_directory>:
  1021e5:	55                   	push   %ebp
  1021e6:	89 e5                	mov    %esp,%ebp
  1021e8:	53                   	push   %ebx
  1021e9:	83 ec 10             	sub    $0x10,%esp
  1021ec:	8b 45 08             	mov    0x8(%ebp),%eax
  1021ef:	a3 08 70 10 00       	mov    %eax,0x107008
  1021f4:	8b 45 08             	mov    0x8(%ebp),%eax
  1021f7:	05 00 10 00 00       	add    $0x1000,%eax
  1021fc:	0f 22 d8             	mov    %eax,%cr3
  1021ff:	0f 20 c3             	mov    %cr0,%ebx
  102202:	89 5d f8             	mov    %ebx,-0x8(%ebp)
  102205:	81 4d f8 00 00 00 80 	orl    $0x80000000,-0x8(%ebp)
  10220c:	8b 45 f8             	mov    -0x8(%ebp),%eax
  10220f:	0f 22 c0             	mov    %eax,%cr0
  102212:	83 c4 10             	add    $0x10,%esp
  102215:	5b                   	pop    %ebx
  102216:	5d                   	pop    %ebp
  102217:	c3                   	ret    

00102218 <paging_get_page>:
  102218:	55                   	push   %ebp
  102219:	89 e5                	mov    %esp,%ebp
  10221b:	83 ec 38             	sub    $0x38,%esp
  10221e:	8b 45 0c             	mov    0xc(%ebp),%eax
  102221:	88 45 e4             	mov    %al,-0x1c(%ebp)
  102224:	8b 45 08             	mov    0x8(%ebp),%eax
  102227:	c1 e8 0c             	shr    $0xc,%eax
  10222a:	89 45 08             	mov    %eax,0x8(%ebp)
  10222d:	8b 45 08             	mov    0x8(%ebp),%eax
  102230:	c1 e8 0a             	shr    $0xa,%eax
  102233:	89 45 f4             	mov    %eax,-0xc(%ebp)
  102236:	8b 45 10             	mov    0x10(%ebp),%eax
  102239:	8b 55 f4             	mov    -0xc(%ebp),%edx
  10223c:	8b 04 90             	mov    (%eax,%edx,4),%eax
  10223f:	85 c0                	test   %eax,%eax
  102241:	74 19                	je     10225c <paging_get_page+0x44>
  102243:	8b 45 10             	mov    0x10(%ebp),%eax
  102246:	8b 55 f4             	mov    -0xc(%ebp),%edx
  102249:	8b 04 90             	mov    (%eax,%edx,4),%eax
  10224c:	8b 55 08             	mov    0x8(%ebp),%edx
  10224f:	81 e2 ff 03 00 00    	and    $0x3ff,%edx
  102255:	c1 e2 02             	shl    $0x2,%edx
  102258:	01 d0                	add    %edx,%eax
  10225a:	eb 59                	jmp    1022b5 <paging_get_page+0x9d>
  10225c:	80 7d e4 00          	cmpb   $0x0,-0x1c(%ebp)
  102260:	74 4e                	je     1022b0 <paging_get_page+0x98>
  102262:	8d 45 f0             	lea    -0x10(%ebp),%eax
  102265:	89 44 24 04          	mov    %eax,0x4(%esp)
  102269:	c7 04 24 00 10 00 00 	movl   $0x1000,(%esp)
  102270:	e8 8c ec ff ff       	call   100f01 <kmalloc_ap>
  102275:	89 c1                	mov    %eax,%ecx
  102277:	8b 45 10             	mov    0x10(%ebp),%eax
  10227a:	8b 55 f4             	mov    -0xc(%ebp),%edx
  10227d:	89 0c 90             	mov    %ecx,(%eax,%edx,4)
  102280:	8b 45 f0             	mov    -0x10(%ebp),%eax
  102283:	89 c1                	mov    %eax,%ecx
  102285:	83 c9 07             	or     $0x7,%ecx
  102288:	8b 45 10             	mov    0x10(%ebp),%eax
  10228b:	8b 55 f4             	mov    -0xc(%ebp),%edx
  10228e:	81 c2 00 04 00 00    	add    $0x400,%edx
  102294:	89 0c 90             	mov    %ecx,(%eax,%edx,4)
  102297:	8b 45 10             	mov    0x10(%ebp),%eax
  10229a:	8b 55 f4             	mov    -0xc(%ebp),%edx
  10229d:	8b 04 90             	mov    (%eax,%edx,4),%eax
  1022a0:	8b 55 08             	mov    0x8(%ebp),%edx
  1022a3:	81 e2 ff 03 00 00    	and    $0x3ff,%edx
  1022a9:	c1 e2 02             	shl    $0x2,%edx
  1022ac:	01 d0                	add    %edx,%eax
  1022ae:	eb 05                	jmp    1022b5 <paging_get_page+0x9d>
  1022b0:	b8 00 00 00 00       	mov    $0x0,%eax
  1022b5:	c9                   	leave  
  1022b6:	c3                   	ret    

001022b7 <paging_page_fault_handler>:
  1022b7:	55                   	push   %ebp
  1022b8:	89 e5                	mov    %esp,%ebp
  1022ba:	53                   	push   %ebx
  1022bb:	83 ec 34             	sub    $0x34,%esp
  1022be:	0f 20 d3             	mov    %cr2,%ebx
  1022c1:	89 5d f4             	mov    %ebx,-0xc(%ebp)
  1022c4:	8b 45 30             	mov    0x30(%ebp),%eax
  1022c7:	83 e0 01             	and    $0x1,%eax
  1022ca:	85 c0                	test   %eax,%eax
  1022cc:	0f 94 c0             	sete   %al
  1022cf:	0f b6 c0             	movzbl %al,%eax
  1022d2:	89 45 f0             	mov    %eax,-0x10(%ebp)
  1022d5:	8b 45 30             	mov    0x30(%ebp),%eax
  1022d8:	83 e0 02             	and    $0x2,%eax
  1022db:	89 45 ec             	mov    %eax,-0x14(%ebp)
  1022de:	8b 45 30             	mov    0x30(%ebp),%eax
  1022e1:	83 e0 04             	and    $0x4,%eax
  1022e4:	89 45 e8             	mov    %eax,-0x18(%ebp)
  1022e7:	8b 45 30             	mov    0x30(%ebp),%eax
  1022ea:	83 e0 08             	and    $0x8,%eax
  1022ed:	89 45 e4             	mov    %eax,-0x1c(%ebp)
  1022f0:	8b 45 30             	mov    0x30(%ebp),%eax
  1022f3:	83 e0 10             	and    $0x10,%eax
  1022f6:	89 45 e0             	mov    %eax,-0x20(%ebp)
  1022f9:	c7 44 24 04 00 00 00 	movl   $0x0,0x4(%esp)
  102300:	00 
  102301:	c7 04 24 00 00 00 00 	movl   $0x0,(%esp)
  102308:	e8 9a 11 00 00       	call   1034a7 <terminal_setPos>
  10230d:	c7 04 24 0b 5e 10 00 	movl   $0x105e0b,(%esp)
  102314:	e8 30 0f 00 00       	call   103249 <terminal_write_string>
  102319:	83 7d f0 00          	cmpl   $0x0,-0x10(%ebp)
  10231d:	74 0c                	je     10232b <paging_page_fault_handler+0x74>
  10231f:	c7 04 24 1a 5e 10 00 	movl   $0x105e1a,(%esp)
  102326:	e8 1e 0f 00 00       	call   103249 <terminal_write_string>
  10232b:	83 7d ec 00          	cmpl   $0x0,-0x14(%ebp)
  10232f:	74 0c                	je     10233d <paging_page_fault_handler+0x86>
  102331:	c7 04 24 23 5e 10 00 	movl   $0x105e23,(%esp)
  102338:	e8 0c 0f 00 00       	call   103249 <terminal_write_string>
  10233d:	83 7d e8 00          	cmpl   $0x0,-0x18(%ebp)
  102341:	74 0c                	je     10234f <paging_page_fault_handler+0x98>
  102343:	c7 04 24 2e 5e 10 00 	movl   $0x105e2e,(%esp)
  10234a:	e8 fa 0e 00 00       	call   103249 <terminal_write_string>
  10234f:	83 7d e4 00          	cmpl   $0x0,-0x1c(%ebp)
  102353:	74 0c                	je     102361 <paging_page_fault_handler+0xaa>
  102355:	c7 04 24 39 5e 10 00 	movl   $0x105e39,(%esp)
  10235c:	e8 e8 0e 00 00       	call   103249 <terminal_write_string>
  102361:	c7 04 24 43 5e 10 00 	movl   $0x105e43,(%esp)
  102368:	e8 dc 0e 00 00       	call   103249 <terminal_write_string>
  10236d:	8b 45 f4             	mov    -0xc(%ebp),%eax
  102370:	89 04 24             	mov    %eax,(%esp)
  102373:	e8 ad 0f 00 00       	call   103325 <terminal_write_dword>
  102378:	c7 04 24 4b 5e 10 00 	movl   $0x105e4b,(%esp)
  10237f:	e8 c5 0e 00 00       	call   103249 <terminal_write_string>
  102384:	eb fe                	jmp    102384 <paging_page_fault_handler+0xcd>
	...

00102388 <panic_assert>:
  102388:	55                   	push   %ebp
  102389:	89 e5                	mov    %esp,%ebp
  10238b:	83 ec 18             	sub    $0x18,%esp
  10238e:	fa                   	cli    
  10238f:	c7 04 24 01 00 00 00 	movl   $0x1,(%esp)
  102396:	e8 dd 0c 00 00       	call   103078 <terminal_initialize>
  10239b:	c7 04 24 4d 5e 10 00 	movl   $0x105e4d,(%esp)
  1023a2:	e8 a2 0e 00 00       	call   103249 <terminal_write_string>
  1023a7:	8b 45 10             	mov    0x10(%ebp),%eax
  1023aa:	89 04 24             	mov    %eax,(%esp)
  1023ad:	e8 97 0e 00 00       	call   103249 <terminal_write_string>
  1023b2:	c7 04 24 5f 5e 10 00 	movl   $0x105e5f,(%esp)
  1023b9:	e8 8b 0e 00 00       	call   103249 <terminal_write_string>
  1023be:	8b 45 08             	mov    0x8(%ebp),%eax
  1023c1:	89 04 24             	mov    %eax,(%esp)
  1023c4:	e8 80 0e 00 00       	call   103249 <terminal_write_string>
  1023c9:	c7 04 24 65 5e 10 00 	movl   $0x105e65,(%esp)
  1023d0:	e8 74 0e 00 00       	call   103249 <terminal_write_string>
  1023d5:	8b 45 0c             	mov    0xc(%ebp),%eax
  1023d8:	89 04 24             	mov    %eax,(%esp)
  1023db:	e8 6c 0f 00 00       	call   10334c <terminal_write_int>
  1023e0:	c7 04 24 67 5e 10 00 	movl   $0x105e67,(%esp)
  1023e7:	e8 5d 0e 00 00       	call   103249 <terminal_write_string>
  1023ec:	eb fe                	jmp    1023ec <panic_assert+0x64>

001023ee <panic>:
  1023ee:	55                   	push   %ebp
  1023ef:	89 e5                	mov    %esp,%ebp
  1023f1:	83 ec 18             	sub    $0x18,%esp
  1023f4:	fa                   	cli    
  1023f5:	c7 04 24 01 00 00 00 	movl   $0x1,(%esp)
  1023fc:	e8 77 0c 00 00       	call   103078 <terminal_initialize>
  102401:	c7 04 24 69 5e 10 00 	movl   $0x105e69,(%esp)
  102408:	e8 3c 0e 00 00       	call   103249 <terminal_write_string>
  10240d:	8b 45 08             	mov    0x8(%ebp),%eax
  102410:	89 04 24             	mov    %eax,(%esp)
  102413:	e8 31 0e 00 00       	call   103249 <terminal_write_string>
  102418:	c7 04 24 5f 5e 10 00 	movl   $0x105e5f,(%esp)
  10241f:	e8 25 0e 00 00       	call   103249 <terminal_write_string>
  102424:	8b 45 0c             	mov    0xc(%ebp),%eax
  102427:	89 04 24             	mov    %eax,(%esp)
  10242a:	e8 1a 0e 00 00       	call   103249 <terminal_write_string>
  10242f:	c7 04 24 65 5e 10 00 	movl   $0x105e65,(%esp)
  102436:	e8 0e 0e 00 00       	call   103249 <terminal_write_string>
  10243b:	8b 45 10             	mov    0x10(%ebp),%eax
  10243e:	89 04 24             	mov    %eax,(%esp)
  102441:	e8 06 0f 00 00       	call   10334c <terminal_write_int>
  102446:	c7 04 24 67 5e 10 00 	movl   $0x105e67,(%esp)
  10244d:	e8 f7 0d 00 00       	call   103249 <terminal_write_string>
  102452:	eb fe                	jmp    102452 <panic+0x64>

00102454 <sys_pic_irq_set_mask>:
  102454:	55                   	push   %ebp
  102455:	89 e5                	mov    %esp,%ebp
  102457:	56                   	push   %esi
  102458:	53                   	push   %ebx
  102459:	83 ec 30             	sub    $0x30,%esp
  10245c:	8b 45 08             	mov    0x8(%ebp),%eax
  10245f:	88 45 e4             	mov    %al,-0x1c(%ebp)
  102462:	80 7d e4 07          	cmpb   $0x7,-0x1c(%ebp)
  102466:	77 08                	ja     102470 <sys_pic_irq_set_mask+0x1c>
  102468:	66 c7 45 f6 21 00    	movw   $0x21,-0xa(%ebp)
  10246e:	eb 0a                	jmp    10247a <sys_pic_irq_set_mask+0x26>
  102470:	66 c7 45 f6 a1 00    	movw   $0xa1,-0xa(%ebp)
  102476:	80 6d e4 08          	subb   $0x8,-0x1c(%ebp)
  10247a:	0f b7 45 f6          	movzwl -0xa(%ebp),%eax
  10247e:	89 04 24             	mov    %eax,(%esp)
  102481:	e8 34 e8 ff ff       	call   100cba <io_inb>
  102486:	89 c2                	mov    %eax,%edx
  102488:	0f b6 45 e4          	movzbl -0x1c(%ebp),%eax
  10248c:	bb 01 00 00 00       	mov    $0x1,%ebx
  102491:	89 de                	mov    %ebx,%esi
  102493:	89 c1                	mov    %eax,%ecx
  102495:	d3 e6                	shl    %cl,%esi
  102497:	89 f0                	mov    %esi,%eax
  102499:	09 d0                	or     %edx,%eax
  10249b:	88 45 f5             	mov    %al,-0xb(%ebp)
  10249e:	0f b6 55 f5          	movzbl -0xb(%ebp),%edx
  1024a2:	0f b7 45 f6          	movzwl -0xa(%ebp),%eax
  1024a6:	89 54 24 04          	mov    %edx,0x4(%esp)
  1024aa:	89 04 24             	mov    %eax,(%esp)
  1024ad:	e8 ea e7 ff ff       	call   100c9c <io_outb>
  1024b2:	83 c4 30             	add    $0x30,%esp
  1024b5:	5b                   	pop    %ebx
  1024b6:	5e                   	pop    %esi
  1024b7:	5d                   	pop    %ebp
  1024b8:	c3                   	ret    

001024b9 <sys_pic_irq_clear_mask>:
  1024b9:	55                   	push   %ebp
  1024ba:	89 e5                	mov    %esp,%ebp
  1024bc:	56                   	push   %esi
  1024bd:	53                   	push   %ebx
  1024be:	83 ec 30             	sub    $0x30,%esp
  1024c1:	8b 45 08             	mov    0x8(%ebp),%eax
  1024c4:	88 45 e4             	mov    %al,-0x1c(%ebp)
  1024c7:	80 7d e4 07          	cmpb   $0x7,-0x1c(%ebp)
  1024cb:	77 08                	ja     1024d5 <sys_pic_irq_clear_mask+0x1c>
  1024cd:	66 c7 45 f6 21 00    	movw   $0x21,-0xa(%ebp)
  1024d3:	eb 0a                	jmp    1024df <sys_pic_irq_clear_mask+0x26>
  1024d5:	66 c7 45 f6 a1 00    	movw   $0xa1,-0xa(%ebp)
  1024db:	80 6d e4 08          	subb   $0x8,-0x1c(%ebp)
  1024df:	0f b7 45 f6          	movzwl -0xa(%ebp),%eax
  1024e3:	89 04 24             	mov    %eax,(%esp)
  1024e6:	e8 cf e7 ff ff       	call   100cba <io_inb>
  1024eb:	89 c2                	mov    %eax,%edx
  1024ed:	0f b6 45 e4          	movzbl -0x1c(%ebp),%eax
  1024f1:	bb 01 00 00 00       	mov    $0x1,%ebx
  1024f6:	89 de                	mov    %ebx,%esi
  1024f8:	89 c1                	mov    %eax,%ecx
  1024fa:	d3 e6                	shl    %cl,%esi
  1024fc:	89 f0                	mov    %esi,%eax
  1024fe:	f7 d0                	not    %eax
  102500:	21 d0                	and    %edx,%eax
  102502:	88 45 f5             	mov    %al,-0xb(%ebp)
  102505:	0f b6 55 f5          	movzbl -0xb(%ebp),%edx
  102509:	0f b7 45 f6          	movzwl -0xa(%ebp),%eax
  10250d:	89 54 24 04          	mov    %edx,0x4(%esp)
  102511:	89 04 24             	mov    %eax,(%esp)
  102514:	e8 83 e7 ff ff       	call   100c9c <io_outb>
  102519:	83 c4 30             	add    $0x30,%esp
  10251c:	5b                   	pop    %ebx
  10251d:	5e                   	pop    %esi
  10251e:	5d                   	pop    %ebp
  10251f:	c3                   	ret    

00102520 <sys_pic_irq_remap>:
  102520:	55                   	push   %ebp
  102521:	89 e5                	mov    %esp,%ebp
  102523:	83 ec 38             	sub    $0x38,%esp
  102526:	8b 55 08             	mov    0x8(%ebp),%edx
  102529:	8b 45 0c             	mov    0xc(%ebp),%eax
  10252c:	88 55 e4             	mov    %dl,-0x1c(%ebp)
  10252f:	88 45 e0             	mov    %al,-0x20(%ebp)
  102532:	c7 04 24 21 00 00 00 	movl   $0x21,(%esp)
  102539:	e8 7c e7 ff ff       	call   100cba <io_inb>
  10253e:	88 45 f7             	mov    %al,-0x9(%ebp)
  102541:	c7 04 24 a1 00 00 00 	movl   $0xa1,(%esp)
  102548:	e8 6d e7 ff ff       	call   100cba <io_inb>
  10254d:	88 45 f6             	mov    %al,-0xa(%ebp)
  102550:	c7 44 24 04 11 00 00 	movl   $0x11,0x4(%esp)
  102557:	00 
  102558:	c7 04 24 20 00 00 00 	movl   $0x20,(%esp)
  10255f:	e8 38 e7 ff ff       	call   100c9c <io_outb>
  102564:	e8 7b e7 ff ff       	call   100ce4 <io_wait>
  102569:	c7 44 24 04 11 00 00 	movl   $0x11,0x4(%esp)
  102570:	00 
  102571:	c7 04 24 a0 00 00 00 	movl   $0xa0,(%esp)
  102578:	e8 1f e7 ff ff       	call   100c9c <io_outb>
  10257d:	e8 62 e7 ff ff       	call   100ce4 <io_wait>
  102582:	0f b6 45 e4          	movzbl -0x1c(%ebp),%eax
  102586:	89 44 24 04          	mov    %eax,0x4(%esp)
  10258a:	c7 04 24 21 00 00 00 	movl   $0x21,(%esp)
  102591:	e8 06 e7 ff ff       	call   100c9c <io_outb>
  102596:	e8 49 e7 ff ff       	call   100ce4 <io_wait>
  10259b:	0f b6 45 e0          	movzbl -0x20(%ebp),%eax
  10259f:	89 44 24 04          	mov    %eax,0x4(%esp)
  1025a3:	c7 04 24 a1 00 00 00 	movl   $0xa1,(%esp)
  1025aa:	e8 ed e6 ff ff       	call   100c9c <io_outb>
  1025af:	e8 30 e7 ff ff       	call   100ce4 <io_wait>
  1025b4:	c7 44 24 04 04 00 00 	movl   $0x4,0x4(%esp)
  1025bb:	00 
  1025bc:	c7 04 24 21 00 00 00 	movl   $0x21,(%esp)
  1025c3:	e8 d4 e6 ff ff       	call   100c9c <io_outb>
  1025c8:	e8 17 e7 ff ff       	call   100ce4 <io_wait>
  1025cd:	c7 44 24 04 02 00 00 	movl   $0x2,0x4(%esp)
  1025d4:	00 
  1025d5:	c7 04 24 a1 00 00 00 	movl   $0xa1,(%esp)
  1025dc:	e8 bb e6 ff ff       	call   100c9c <io_outb>
  1025e1:	e8 fe e6 ff ff       	call   100ce4 <io_wait>
  1025e6:	c7 44 24 04 01 00 00 	movl   $0x1,0x4(%esp)
  1025ed:	00 
  1025ee:	c7 04 24 21 00 00 00 	movl   $0x21,(%esp)
  1025f5:	e8 a2 e6 ff ff       	call   100c9c <io_outb>
  1025fa:	e8 e5 e6 ff ff       	call   100ce4 <io_wait>
  1025ff:	c7 44 24 04 01 00 00 	movl   $0x1,0x4(%esp)
  102606:	00 
  102607:	c7 04 24 a1 00 00 00 	movl   $0xa1,(%esp)
  10260e:	e8 89 e6 ff ff       	call   100c9c <io_outb>
  102613:	e8 cc e6 ff ff       	call   100ce4 <io_wait>
  102618:	0f b6 45 f7          	movzbl -0x9(%ebp),%eax
  10261c:	89 44 24 04          	mov    %eax,0x4(%esp)
  102620:	c7 04 24 21 00 00 00 	movl   $0x21,(%esp)
  102627:	e8 70 e6 ff ff       	call   100c9c <io_outb>
  10262c:	0f b6 45 f6          	movzbl -0xa(%ebp),%eax
  102630:	89 44 24 04          	mov    %eax,0x4(%esp)
  102634:	c7 04 24 a1 00 00 00 	movl   $0xa1,(%esp)
  10263b:	e8 5c e6 ff ff       	call   100c9c <io_outb>
  102640:	c9                   	leave  
  102641:	c3                   	ret    

00102642 <pic_get_irq_reg>:
  102642:	55                   	push   %ebp
  102643:	89 e5                	mov    %esp,%ebp
  102645:	53                   	push   %ebx
  102646:	83 ec 24             	sub    $0x24,%esp
  102649:	8b 45 08             	mov    0x8(%ebp),%eax
  10264c:	88 45 f4             	mov    %al,-0xc(%ebp)
  10264f:	0f b6 45 f4          	movzbl -0xc(%ebp),%eax
  102653:	89 44 24 04          	mov    %eax,0x4(%esp)
  102657:	c7 04 24 20 00 00 00 	movl   $0x20,(%esp)
  10265e:	e8 39 e6 ff ff       	call   100c9c <io_outb>
  102663:	0f b6 45 f4          	movzbl -0xc(%ebp),%eax
  102667:	89 44 24 04          	mov    %eax,0x4(%esp)
  10266b:	c7 04 24 a0 00 00 00 	movl   $0xa0,(%esp)
  102672:	e8 25 e6 ff ff       	call   100c9c <io_outb>
  102677:	e8 68 e6 ff ff       	call   100ce4 <io_wait>
  10267c:	c7 04 24 20 00 00 00 	movl   $0x20,(%esp)
  102683:	e8 32 e6 ff ff       	call   100cba <io_inb>
  102688:	0f b6 c0             	movzbl %al,%eax
  10268b:	c1 e0 08             	shl    $0x8,%eax
  10268e:	89 c3                	mov    %eax,%ebx
  102690:	c7 04 24 a0 00 00 00 	movl   $0xa0,(%esp)
  102697:	e8 1e e6 ff ff       	call   100cba <io_inb>
  10269c:	0f b6 c0             	movzbl %al,%eax
  10269f:	09 d8                	or     %ebx,%eax
  1026a1:	83 c4 24             	add    $0x24,%esp
  1026a4:	5b                   	pop    %ebx
  1026a5:	5d                   	pop    %ebp
  1026a6:	c3                   	ret    

001026a7 <sys_pic_irq_get_irr>:
  1026a7:	55                   	push   %ebp
  1026a8:	89 e5                	mov    %esp,%ebp
  1026aa:	83 ec 18             	sub    $0x18,%esp
  1026ad:	c7 04 24 0a 00 00 00 	movl   $0xa,(%esp)
  1026b4:	e8 89 ff ff ff       	call   102642 <pic_get_irq_reg>
  1026b9:	c9                   	leave  
  1026ba:	c3                   	ret    

001026bb <sys_pic_irq_get_isr>:
  1026bb:	55                   	push   %ebp
  1026bc:	89 e5                	mov    %esp,%ebp
  1026be:	83 ec 18             	sub    $0x18,%esp
  1026c1:	c7 04 24 0b 00 00 00 	movl   $0xb,(%esp)
  1026c8:	e8 75 ff ff ff       	call   102642 <pic_get_irq_reg>
  1026cd:	c9                   	leave  
  1026ce:	c3                   	ret    

001026cf <sys_pic_irq_eoi>:
  1026cf:	55                   	push   %ebp
  1026d0:	89 e5                	mov    %esp,%ebp
  1026d2:	83 ec 28             	sub    $0x28,%esp
  1026d5:	8b 45 08             	mov    0x8(%ebp),%eax
  1026d8:	88 45 f4             	mov    %al,-0xc(%ebp)
  1026db:	80 7d f4 07          	cmpb   $0x7,-0xc(%ebp)
  1026df:	76 14                	jbe    1026f5 <sys_pic_irq_eoi+0x26>
  1026e1:	c7 44 24 04 20 00 00 	movl   $0x20,0x4(%esp)
  1026e8:	00 
  1026e9:	c7 04 24 a0 00 00 00 	movl   $0xa0,(%esp)
  1026f0:	e8 a7 e5 ff ff       	call   100c9c <io_outb>
  1026f5:	c7 44 24 04 20 00 00 	movl   $0x20,0x4(%esp)
  1026fc:	00 
  1026fd:	c7 04 24 20 00 00 00 	movl   $0x20,(%esp)
  102704:	e8 93 e5 ff ff       	call   100c9c <io_outb>
  102709:	c9                   	leave  
  10270a:	c3                   	ret    

0010270b <sys_pic_irq_disable>:
  10270b:	55                   	push   %ebp
  10270c:	89 e5                	mov    %esp,%ebp
  10270e:	83 ec 18             	sub    $0x18,%esp
  102711:	c7 44 24 04 ff 00 00 	movl   $0xff,0x4(%esp)
  102718:	00 
  102719:	c7 04 24 21 00 00 00 	movl   $0x21,(%esp)
  102720:	e8 77 e5 ff ff       	call   100c9c <io_outb>
  102725:	e8 ba e5 ff ff       	call   100ce4 <io_wait>
  10272a:	c7 44 24 04 ff 00 00 	movl   $0xff,0x4(%esp)
  102731:	00 
  102732:	c7 04 24 a1 00 00 00 	movl   $0xa1,(%esp)
  102739:	e8 5e e5 ff ff       	call   100c9c <io_outb>
  10273e:	e8 a1 e5 ff ff       	call   100ce4 <io_wait>
  102743:	c9                   	leave  
  102744:	c3                   	ret    
  102745:	00 00                	add    %al,(%eax)
	...

00102748 <sys_pit_init>:
  102748:	55                   	push   %ebp
  102749:	89 e5                	mov    %esp,%ebp
  10274b:	83 ec 38             	sub    $0x38,%esp
  10274e:	8b 55 08             	mov    0x8(%ebp),%edx
  102751:	8b 45 0c             	mov    0xc(%ebp),%eax
  102754:	88 55 e4             	mov    %dl,-0x1c(%ebp)
  102757:	88 45 e0             	mov    %al,-0x20(%ebp)
  10275a:	c6 45 f7 34          	movb   $0x34,-0x9(%ebp)
  10275e:	0f b6 45 e4          	movzbl -0x1c(%ebp),%eax
  102762:	c1 e0 06             	shl    $0x6,%eax
  102765:	89 c2                	mov    %eax,%edx
  102767:	0f b6 45 f7          	movzbl -0x9(%ebp),%eax
  10276b:	09 d0                	or     %edx,%eax
  10276d:	88 45 f7             	mov    %al,-0x9(%ebp)
  102770:	0f b6 45 e0          	movzbl -0x20(%ebp),%eax
  102774:	83 e0 07             	and    $0x7,%eax
  102777:	01 c0                	add    %eax,%eax
  102779:	89 c2                	mov    %eax,%edx
  10277b:	0f b6 45 f7          	movzbl -0x9(%ebp),%eax
  10277f:	09 d0                	or     %edx,%eax
  102781:	88 45 f7             	mov    %al,-0x9(%ebp)
  102784:	0f b6 45 f7          	movzbl -0x9(%ebp),%eax
  102788:	89 44 24 04          	mov    %eax,0x4(%esp)
  10278c:	c7 04 24 43 00 00 00 	movl   $0x43,(%esp)
  102793:	e8 04 e5 ff ff       	call   100c9c <io_outb>
  102798:	c9                   	leave  
  102799:	c3                   	ret    

0010279a <sys_pit_set_reload>:
  10279a:	55                   	push   %ebp
  10279b:	89 e5                	mov    %esp,%ebp
  10279d:	83 ec 28             	sub    $0x28,%esp
  1027a0:	8b 55 08             	mov    0x8(%ebp),%edx
  1027a3:	8b 45 0c             	mov    0xc(%ebp),%eax
  1027a6:	88 55 f4             	mov    %dl,-0xc(%ebp)
  1027a9:	66 89 45 f0          	mov    %ax,-0x10(%ebp)
  1027ad:	0f b7 45 f0          	movzwl -0x10(%ebp),%eax
  1027b1:	0f b6 c0             	movzbl %al,%eax
  1027b4:	89 44 24 04          	mov    %eax,0x4(%esp)
  1027b8:	c7 04 24 40 00 00 00 	movl   $0x40,(%esp)
  1027bf:	e8 d8 e4 ff ff       	call   100c9c <io_outb>
  1027c4:	c7 44 24 04 00 00 00 	movl   $0x0,0x4(%esp)
  1027cb:	00 
  1027cc:	c7 04 24 40 00 00 00 	movl   $0x40,(%esp)
  1027d3:	e8 c4 e4 ff ff       	call   100c9c <io_outb>
  1027d8:	c9                   	leave  
  1027d9:	c3                   	ret    
	...

001027dc <strlen>:
  1027dc:	55                   	push   %ebp
  1027dd:	89 e5                	mov    %esp,%ebp
  1027df:	83 ec 10             	sub    $0x10,%esp
  1027e2:	c7 45 fc 00 00 00 00 	movl   $0x0,-0x4(%ebp)
  1027e9:	eb 04                	jmp    1027ef <strlen+0x13>
  1027eb:	83 45 fc 01          	addl   $0x1,-0x4(%ebp)
  1027ef:	8b 45 fc             	mov    -0x4(%ebp),%eax
  1027f2:	8b 55 08             	mov    0x8(%ebp),%edx
  1027f5:	01 d0                	add    %edx,%eax
  1027f7:	0f b6 00             	movzbl (%eax),%eax
  1027fa:	84 c0                	test   %al,%al
  1027fc:	75 ed                	jne    1027eb <strlen+0xf>
  1027fe:	8b 45 fc             	mov    -0x4(%ebp),%eax
  102801:	c9                   	leave  
  102802:	c3                   	ret    

00102803 <memchr>:
  102803:	55                   	push   %ebp
  102804:	89 e5                	mov    %esp,%ebp
  102806:	83 ec 14             	sub    $0x14,%esp
  102809:	8b 45 0c             	mov    0xc(%ebp),%eax
  10280c:	88 45 ec             	mov    %al,-0x14(%ebp)
  10280f:	8b 45 08             	mov    0x8(%ebp),%eax
  102812:	89 45 f8             	mov    %eax,-0x8(%ebp)
  102815:	c7 45 fc 00 00 00 00 	movl   $0x0,-0x4(%ebp)
  10281c:	eb 1a                	jmp    102838 <memchr+0x35>
  10281e:	8b 45 fc             	mov    -0x4(%ebp),%eax
  102821:	03 45 f8             	add    -0x8(%ebp),%eax
  102824:	0f b6 00             	movzbl (%eax),%eax
  102827:	3a 45 ec             	cmp    -0x14(%ebp),%al
  10282a:	75 08                	jne    102834 <memchr+0x31>
  10282c:	8b 45 fc             	mov    -0x4(%ebp),%eax
  10282f:	03 45 f8             	add    -0x8(%ebp),%eax
  102832:	eb 11                	jmp    102845 <memchr+0x42>
  102834:	83 45 fc 01          	addl   $0x1,-0x4(%ebp)
  102838:	8b 45 fc             	mov    -0x4(%ebp),%eax
  10283b:	3b 45 10             	cmp    0x10(%ebp),%eax
  10283e:	72 de                	jb     10281e <memchr+0x1b>
  102840:	b8 00 00 00 00       	mov    $0x0,%eax
  102845:	c9                   	leave  
  102846:	c3                   	ret    

00102847 <memcmp>:
  102847:	55                   	push   %ebp
  102848:	89 e5                	mov    %esp,%ebp
  10284a:	83 ec 10             	sub    $0x10,%esp
  10284d:	8b 45 08             	mov    0x8(%ebp),%eax
  102850:	89 45 f8             	mov    %eax,-0x8(%ebp)
  102853:	8b 45 0c             	mov    0xc(%ebp),%eax
  102856:	89 45 f4             	mov    %eax,-0xc(%ebp)
  102859:	c7 45 fc 00 00 00 00 	movl   $0x0,-0x4(%ebp)
  102860:	eb 3e                	jmp    1028a0 <memcmp+0x59>
  102862:	8b 45 fc             	mov    -0x4(%ebp),%eax
  102865:	03 45 f8             	add    -0x8(%ebp),%eax
  102868:	0f b6 10             	movzbl (%eax),%edx
  10286b:	8b 45 fc             	mov    -0x4(%ebp),%eax
  10286e:	03 45 f4             	add    -0xc(%ebp),%eax
  102871:	0f b6 00             	movzbl (%eax),%eax
  102874:	38 c2                	cmp    %al,%dl
  102876:	74 24                	je     10289c <memcmp+0x55>
  102878:	8b 45 fc             	mov    -0x4(%ebp),%eax
  10287b:	03 45 f8             	add    -0x8(%ebp),%eax
  10287e:	0f b6 10             	movzbl (%eax),%edx
  102881:	8b 45 fc             	mov    -0x4(%ebp),%eax
  102884:	03 45 f4             	add    -0xc(%ebp),%eax
  102887:	0f b6 00             	movzbl (%eax),%eax
  10288a:	38 c2                	cmp    %al,%dl
  10288c:	76 07                	jbe    102895 <memcmp+0x4e>
  10288e:	b8 01 00 00 00       	mov    $0x1,%eax
  102893:	eb 18                	jmp    1028ad <memcmp+0x66>
  102895:	b8 ff ff ff ff       	mov    $0xffffffff,%eax
  10289a:	eb 11                	jmp    1028ad <memcmp+0x66>
  10289c:	83 45 fc 01          	addl   $0x1,-0x4(%ebp)
  1028a0:	8b 45 fc             	mov    -0x4(%ebp),%eax
  1028a3:	3b 45 10             	cmp    0x10(%ebp),%eax
  1028a6:	72 ba                	jb     102862 <memcmp+0x1b>
  1028a8:	b8 00 00 00 00       	mov    $0x0,%eax
  1028ad:	c9                   	leave  
  1028ae:	c3                   	ret    

001028af <memcpy>:
  1028af:	55                   	push   %ebp
  1028b0:	89 e5                	mov    %esp,%ebp
  1028b2:	83 ec 10             	sub    $0x10,%esp
  1028b5:	8b 45 08             	mov    0x8(%ebp),%eax
  1028b8:	89 45 f8             	mov    %eax,-0x8(%ebp)
  1028bb:	8b 45 0c             	mov    0xc(%ebp),%eax
  1028be:	89 45 f4             	mov    %eax,-0xc(%ebp)
  1028c1:	c7 45 fc 00 00 00 00 	movl   $0x0,-0x4(%ebp)
  1028c8:	eb 15                	jmp    1028df <memcpy+0x30>
  1028ca:	8b 45 fc             	mov    -0x4(%ebp),%eax
  1028cd:	03 45 f8             	add    -0x8(%ebp),%eax
  1028d0:	8b 55 fc             	mov    -0x4(%ebp),%edx
  1028d3:	03 55 f4             	add    -0xc(%ebp),%edx
  1028d6:	0f b6 12             	movzbl (%edx),%edx
  1028d9:	88 10                	mov    %dl,(%eax)
  1028db:	83 45 fc 01          	addl   $0x1,-0x4(%ebp)
  1028df:	8b 45 fc             	mov    -0x4(%ebp),%eax
  1028e2:	3b 45 10             	cmp    0x10(%ebp),%eax
  1028e5:	72 e3                	jb     1028ca <memcpy+0x1b>
  1028e7:	8b 45 08             	mov    0x8(%ebp),%eax
  1028ea:	c9                   	leave  
  1028eb:	c3                   	ret    

001028ec <memset>:
  1028ec:	55                   	push   %ebp
  1028ed:	89 e5                	mov    %esp,%ebp
  1028ef:	83 ec 14             	sub    $0x14,%esp
  1028f2:	8b 45 0c             	mov    0xc(%ebp),%eax
  1028f5:	88 45 ec             	mov    %al,-0x14(%ebp)
  1028f8:	8b 45 08             	mov    0x8(%ebp),%eax
  1028fb:	89 45 f8             	mov    %eax,-0x8(%ebp)
  1028fe:	c7 45 fc 00 00 00 00 	movl   $0x0,-0x4(%ebp)
  102905:	eb 10                	jmp    102917 <memset+0x2b>
  102907:	8b 45 fc             	mov    -0x4(%ebp),%eax
  10290a:	03 45 f8             	add    -0x8(%ebp),%eax
  10290d:	0f b6 55 ec          	movzbl -0x14(%ebp),%edx
  102911:	88 10                	mov    %dl,(%eax)
  102913:	83 45 fc 01          	addl   $0x1,-0x4(%ebp)
  102917:	8b 45 fc             	mov    -0x4(%ebp),%eax
  10291a:	3b 45 10             	cmp    0x10(%ebp),%eax
  10291d:	72 e8                	jb     102907 <memset+0x1b>
  10291f:	8b 45 08             	mov    0x8(%ebp),%eax
  102922:	c9                   	leave  
  102923:	c3                   	ret    

00102924 <system_init>:
  102924:	55                   	push   %ebp
  102925:	89 e5                	mov    %esp,%ebp
  102927:	83 ec 08             	sub    $0x8,%esp
  10292a:	e8 45 04 00 00       	call   102d74 <sys_build_gdt>
  10292f:	e8 07 00 00 00       	call   10293b <sys_build_idt>
  102934:	e8 60 03 00 00       	call   102c99 <sys_setup_ints>
  102939:	c9                   	leave  
  10293a:	c3                   	ret    

0010293b <sys_build_idt>:
  10293b:	55                   	push   %ebp
  10293c:	89 e5                	mov    %esp,%ebp
  10293e:	83 ec 28             	sub    $0x28,%esp
  102941:	c7 45 f0 00 00 55 00 	movl   $0x550000,-0x10(%ebp)
  102948:	c7 44 24 08 00 08 00 	movl   $0x800,0x8(%esp)
  10294f:	00 
  102950:	c7 44 24 04 00 00 00 	movl   $0x0,0x4(%esp)
  102957:	00 
  102958:	8b 45 f0             	mov    -0x10(%ebp),%eax
  10295b:	89 04 24             	mov    %eax,(%esp)
  10295e:	e8 89 ff ff ff       	call   1028ec <memset>
  102963:	c7 45 f4 00 00 00 00 	movl   $0x0,-0xc(%ebp)
  10296a:	eb 2b                	jmp    102997 <sys_build_idt+0x5c>
  10296c:	ba f0 0c 10 00       	mov    $0x100cf0,%edx
  102971:	8b 45 f4             	mov    -0xc(%ebp),%eax
  102974:	0f b6 c0             	movzbl %al,%eax
  102977:	c7 44 24 0c 8e 00 00 	movl   $0x8e,0xc(%esp)
  10297e:	00 
  10297f:	c7 44 24 08 08 00 00 	movl   $0x8,0x8(%esp)
  102986:	00 
  102987:	89 54 24 04          	mov    %edx,0x4(%esp)
  10298b:	89 04 24             	mov    %eax,(%esp)
  10298e:	e8 6b 03 00 00       	call   102cfe <sys_set_idt_gate>
  102993:	83 45 f4 01          	addl   $0x1,-0xc(%ebp)
  102997:	81 7d f4 ff 00 00 00 	cmpl   $0xff,-0xc(%ebp)
  10299e:	7e cc                	jle    10296c <sys_build_idt+0x31>
  1029a0:	b8 00 0d 10 00       	mov    $0x100d00,%eax
  1029a5:	c7 44 24 0c 8e 00 00 	movl   $0x8e,0xc(%esp)
  1029ac:	00 
  1029ad:	c7 44 24 08 08 00 00 	movl   $0x8,0x8(%esp)
  1029b4:	00 
  1029b5:	89 44 24 04          	mov    %eax,0x4(%esp)
  1029b9:	c7 04 24 20 00 00 00 	movl   $0x20,(%esp)
  1029c0:	e8 39 03 00 00       	call   102cfe <sys_set_idt_gate>
  1029c5:	b8 20 0d 10 00       	mov    $0x100d20,%eax
  1029ca:	c7 44 24 0c 8e 00 00 	movl   $0x8e,0xc(%esp)
  1029d1:	00 
  1029d2:	c7 44 24 08 08 00 00 	movl   $0x8,0x8(%esp)
  1029d9:	00 
  1029da:	89 44 24 04          	mov    %eax,0x4(%esp)
  1029de:	c7 04 24 00 00 00 00 	movl   $0x0,(%esp)
  1029e5:	e8 14 03 00 00       	call   102cfe <sys_set_idt_gate>
  1029ea:	b8 27 0d 10 00       	mov    $0x100d27,%eax
  1029ef:	c7 44 24 0c 8e 00 00 	movl   $0x8e,0xc(%esp)
  1029f6:	00 
  1029f7:	c7 44 24 08 08 00 00 	movl   $0x8,0x8(%esp)
  1029fe:	00 
  1029ff:	89 44 24 04          	mov    %eax,0x4(%esp)
  102a03:	c7 04 24 01 00 00 00 	movl   $0x1,(%esp)
  102a0a:	e8 ef 02 00 00       	call   102cfe <sys_set_idt_gate>
  102a0f:	b8 2e 0d 10 00       	mov    $0x100d2e,%eax
  102a14:	c7 44 24 0c 8e 00 00 	movl   $0x8e,0xc(%esp)
  102a1b:	00 
  102a1c:	c7 44 24 08 08 00 00 	movl   $0x8,0x8(%esp)
  102a23:	00 
  102a24:	89 44 24 04          	mov    %eax,0x4(%esp)
  102a28:	c7 04 24 02 00 00 00 	movl   $0x2,(%esp)
  102a2f:	e8 ca 02 00 00       	call   102cfe <sys_set_idt_gate>
  102a34:	b8 35 0d 10 00       	mov    $0x100d35,%eax
  102a39:	c7 44 24 0c 8e 00 00 	movl   $0x8e,0xc(%esp)
  102a40:	00 
  102a41:	c7 44 24 08 08 00 00 	movl   $0x8,0x8(%esp)
  102a48:	00 
  102a49:	89 44 24 04          	mov    %eax,0x4(%esp)
  102a4d:	c7 04 24 03 00 00 00 	movl   $0x3,(%esp)
  102a54:	e8 a5 02 00 00       	call   102cfe <sys_set_idt_gate>
  102a59:	b8 3c 0d 10 00       	mov    $0x100d3c,%eax
  102a5e:	c7 44 24 0c 8e 00 00 	movl   $0x8e,0xc(%esp)
  102a65:	00 
  102a66:	c7 44 24 08 08 00 00 	movl   $0x8,0x8(%esp)
  102a6d:	00 
  102a6e:	89 44 24 04          	mov    %eax,0x4(%esp)
  102a72:	c7 04 24 04 00 00 00 	movl   $0x4,(%esp)
  102a79:	e8 80 02 00 00       	call   102cfe <sys_set_idt_gate>
  102a7e:	b8 43 0d 10 00       	mov    $0x100d43,%eax
  102a83:	c7 44 24 0c 8e 00 00 	movl   $0x8e,0xc(%esp)
  102a8a:	00 
  102a8b:	c7 44 24 08 08 00 00 	movl   $0x8,0x8(%esp)
  102a92:	00 
  102a93:	89 44 24 04          	mov    %eax,0x4(%esp)
  102a97:	c7 04 24 05 00 00 00 	movl   $0x5,(%esp)
  102a9e:	e8 5b 02 00 00       	call   102cfe <sys_set_idt_gate>
  102aa3:	b8 4a 0d 10 00       	mov    $0x100d4a,%eax
  102aa8:	c7 44 24 0c 8e 00 00 	movl   $0x8e,0xc(%esp)
  102aaf:	00 
  102ab0:	c7 44 24 08 08 00 00 	movl   $0x8,0x8(%esp)
  102ab7:	00 
  102ab8:	89 44 24 04          	mov    %eax,0x4(%esp)
  102abc:	c7 04 24 06 00 00 00 	movl   $0x6,(%esp)
  102ac3:	e8 36 02 00 00       	call   102cfe <sys_set_idt_gate>
  102ac8:	b8 51 0d 10 00       	mov    $0x100d51,%eax
  102acd:	c7 44 24 0c 8e 00 00 	movl   $0x8e,0xc(%esp)
  102ad4:	00 
  102ad5:	c7 44 24 08 08 00 00 	movl   $0x8,0x8(%esp)
  102adc:	00 
  102add:	89 44 24 04          	mov    %eax,0x4(%esp)
  102ae1:	c7 04 24 07 00 00 00 	movl   $0x7,(%esp)
  102ae8:	e8 11 02 00 00       	call   102cfe <sys_set_idt_gate>
  102aed:	b8 58 0d 10 00       	mov    $0x100d58,%eax
  102af2:	c7 44 24 0c 8e 00 00 	movl   $0x8e,0xc(%esp)
  102af9:	00 
  102afa:	c7 44 24 08 08 00 00 	movl   $0x8,0x8(%esp)
  102b01:	00 
  102b02:	89 44 24 04          	mov    %eax,0x4(%esp)
  102b06:	c7 04 24 08 00 00 00 	movl   $0x8,(%esp)
  102b0d:	e8 ec 01 00 00       	call   102cfe <sys_set_idt_gate>
  102b12:	b8 5d 0d 10 00       	mov    $0x100d5d,%eax
  102b17:	c7 44 24 0c 8e 00 00 	movl   $0x8e,0xc(%esp)
  102b1e:	00 
  102b1f:	c7 44 24 08 08 00 00 	movl   $0x8,0x8(%esp)
  102b26:	00 
  102b27:	89 44 24 04          	mov    %eax,0x4(%esp)
  102b2b:	c7 04 24 09 00 00 00 	movl   $0x9,(%esp)
  102b32:	e8 c7 01 00 00       	call   102cfe <sys_set_idt_gate>
  102b37:	b8 64 0d 10 00       	mov    $0x100d64,%eax
  102b3c:	c7 44 24 0c 8e 00 00 	movl   $0x8e,0xc(%esp)
  102b43:	00 
  102b44:	c7 44 24 08 08 00 00 	movl   $0x8,0x8(%esp)
  102b4b:	00 
  102b4c:	89 44 24 04          	mov    %eax,0x4(%esp)
  102b50:	c7 04 24 0a 00 00 00 	movl   $0xa,(%esp)
  102b57:	e8 a2 01 00 00       	call   102cfe <sys_set_idt_gate>
  102b5c:	b8 69 0d 10 00       	mov    $0x100d69,%eax
  102b61:	c7 44 24 0c 8e 00 00 	movl   $0x8e,0xc(%esp)
  102b68:	00 
  102b69:	c7 44 24 08 08 00 00 	movl   $0x8,0x8(%esp)
  102b70:	00 
  102b71:	89 44 24 04          	mov    %eax,0x4(%esp)
  102b75:	c7 04 24 0b 00 00 00 	movl   $0xb,(%esp)
  102b7c:	e8 7d 01 00 00       	call   102cfe <sys_set_idt_gate>
  102b81:	b8 6e 0d 10 00       	mov    $0x100d6e,%eax
  102b86:	c7 44 24 0c 8e 00 00 	movl   $0x8e,0xc(%esp)
  102b8d:	00 
  102b8e:	c7 44 24 08 08 00 00 	movl   $0x8,0x8(%esp)
  102b95:	00 
  102b96:	89 44 24 04          	mov    %eax,0x4(%esp)
  102b9a:	c7 04 24 0c 00 00 00 	movl   $0xc,(%esp)
  102ba1:	e8 58 01 00 00       	call   102cfe <sys_set_idt_gate>
  102ba6:	b8 73 0d 10 00       	mov    $0x100d73,%eax
  102bab:	c7 44 24 0c 8e 00 00 	movl   $0x8e,0xc(%esp)
  102bb2:	00 
  102bb3:	c7 44 24 08 08 00 00 	movl   $0x8,0x8(%esp)
  102bba:	00 
  102bbb:	89 44 24 04          	mov    %eax,0x4(%esp)
  102bbf:	c7 04 24 0d 00 00 00 	movl   $0xd,(%esp)
  102bc6:	e8 33 01 00 00       	call   102cfe <sys_set_idt_gate>
  102bcb:	b8 7d 0d 10 00       	mov    $0x100d7d,%eax
  102bd0:	c7 44 24 0c 8e 00 00 	movl   $0x8e,0xc(%esp)
  102bd7:	00 
  102bd8:	c7 44 24 08 08 00 00 	movl   $0x8,0x8(%esp)
  102bdf:	00 
  102be0:	89 44 24 04          	mov    %eax,0x4(%esp)
  102be4:	c7 04 24 0f 00 00 00 	movl   $0xf,(%esp)
  102beb:	e8 0e 01 00 00       	call   102cfe <sys_set_idt_gate>
  102bf0:	b8 84 0d 10 00       	mov    $0x100d84,%eax
  102bf5:	c7 44 24 0c 8e 00 00 	movl   $0x8e,0xc(%esp)
  102bfc:	00 
  102bfd:	c7 44 24 08 08 00 00 	movl   $0x8,0x8(%esp)
  102c04:	00 
  102c05:	89 44 24 04          	mov    %eax,0x4(%esp)
  102c09:	c7 04 24 10 00 00 00 	movl   $0x10,(%esp)
  102c10:	e8 e9 00 00 00       	call   102cfe <sys_set_idt_gate>
  102c15:	b8 8b 0d 10 00       	mov    $0x100d8b,%eax
  102c1a:	c7 44 24 0c 8e 00 00 	movl   $0x8e,0xc(%esp)
  102c21:	00 
  102c22:	c7 44 24 08 08 00 00 	movl   $0x8,0x8(%esp)
  102c29:	00 
  102c2a:	89 44 24 04          	mov    %eax,0x4(%esp)
  102c2e:	c7 04 24 11 00 00 00 	movl   $0x11,(%esp)
  102c35:	e8 c4 00 00 00       	call   102cfe <sys_set_idt_gate>
  102c3a:	b8 92 0d 10 00       	mov    $0x100d92,%eax
  102c3f:	c7 44 24 0c 8e 00 00 	movl   $0x8e,0xc(%esp)
  102c46:	00 
  102c47:	c7 44 24 08 08 00 00 	movl   $0x8,0x8(%esp)
  102c4e:	00 
  102c4f:	89 44 24 04          	mov    %eax,0x4(%esp)
  102c53:	c7 04 24 12 00 00 00 	movl   $0x12,(%esp)
  102c5a:	e8 9f 00 00 00       	call   102cfe <sys_set_idt_gate>
  102c5f:	b8 78 0d 10 00       	mov    $0x100d78,%eax
  102c64:	c7 44 24 0c 8e 00 00 	movl   $0x8e,0xc(%esp)
  102c6b:	00 
  102c6c:	c7 44 24 08 08 00 00 	movl   $0x8,0x8(%esp)
  102c73:	00 
  102c74:	89 44 24 04          	mov    %eax,0x4(%esp)
  102c78:	c7 04 24 0e 00 00 00 	movl   $0xe,(%esp)
  102c7f:	e8 7a 00 00 00       	call   102cfe <sys_set_idt_gate>
  102c84:	c7 44 24 04 00 08 00 	movl   $0x800,0x4(%esp)
  102c8b:	00 
  102c8c:	8b 45 f0             	mov    -0x10(%ebp),%eax
  102c8f:	89 04 24             	mov    %eax,(%esp)
  102c92:	e8 dd 02 00 00       	call   102f74 <sys_set_lidt>
  102c97:	c9                   	leave  
  102c98:	c3                   	ret    

00102c99 <sys_setup_ints>:
  102c99:	55                   	push   %ebp
  102c9a:	89 e5                	mov    %esp,%ebp
  102c9c:	83 ec 18             	sub    $0x18,%esp
  102c9f:	c7 44 24 04 28 00 00 	movl   $0x28,0x4(%esp)
  102ca6:	00 
  102ca7:	c7 04 24 20 00 00 00 	movl   $0x20,(%esp)
  102cae:	e8 6d f8 ff ff       	call   102520 <sys_pic_irq_remap>
  102cb3:	c7 04 24 00 00 00 00 	movl   $0x0,(%esp)
  102cba:	e8 fa f7 ff ff       	call   1024b9 <sys_pic_irq_clear_mask>
  102cbf:	c7 44 24 04 00 00 00 	movl   $0x0,0x4(%esp)
  102cc6:	00 
  102cc7:	c7 04 24 00 00 00 00 	movl   $0x0,(%esp)
  102cce:	e8 75 fa ff ff       	call   102748 <sys_pit_init>
  102cd3:	c7 44 24 04 78 00 00 	movl   $0x78,0x4(%esp)
  102cda:	00 
  102cdb:	c7 04 24 00 00 00 00 	movl   $0x0,(%esp)
  102ce2:	e8 b3 fa ff ff       	call   10279a <sys_pit_set_reload>
  102ce7:	c7 05 30 70 10 00 00 	movl   $0x0,0x107030
  102cee:	00 00 00 
  102cf1:	c7 05 34 70 10 00 00 	movl   $0x0,0x107034
  102cf8:	00 00 00 
  102cfb:	fb                   	sti    
  102cfc:	c9                   	leave  
  102cfd:	c3                   	ret    

00102cfe <sys_set_idt_gate>:
  102cfe:	55                   	push   %ebp
  102cff:	89 e5                	mov    %esp,%ebp
  102d01:	83 ec 1c             	sub    $0x1c,%esp
  102d04:	8b 4d 08             	mov    0x8(%ebp),%ecx
  102d07:	8b 55 10             	mov    0x10(%ebp),%edx
  102d0a:	8b 45 14             	mov    0x14(%ebp),%eax
  102d0d:	88 4d ec             	mov    %cl,-0x14(%ebp)
  102d10:	88 55 e8             	mov    %dl,-0x18(%ebp)
  102d13:	88 45 e4             	mov    %al,-0x1c(%ebp)
  102d16:	c7 45 fc 00 00 55 00 	movl   $0x550000,-0x4(%ebp)
  102d1d:	0f b6 45 ec          	movzbl -0x14(%ebp),%eax
  102d21:	c1 e0 03             	shl    $0x3,%eax
  102d24:	03 45 fc             	add    -0x4(%ebp),%eax
  102d27:	8b 55 0c             	mov    0xc(%ebp),%edx
  102d2a:	66 89 10             	mov    %dx,(%eax)
  102d2d:	0f b6 45 ec          	movzbl -0x14(%ebp),%eax
  102d31:	c1 e0 03             	shl    $0x3,%eax
  102d34:	03 45 fc             	add    -0x4(%ebp),%eax
  102d37:	8b 55 0c             	mov    0xc(%ebp),%edx
  102d3a:	c1 ea 10             	shr    $0x10,%edx
  102d3d:	66 89 50 06          	mov    %dx,0x6(%eax)
  102d41:	0f b6 45 ec          	movzbl -0x14(%ebp),%eax
  102d45:	c1 e0 03             	shl    $0x3,%eax
  102d48:	03 45 fc             	add    -0x4(%ebp),%eax
  102d4b:	0f b6 55 e8          	movzbl -0x18(%ebp),%edx
  102d4f:	66 89 50 02          	mov    %dx,0x2(%eax)
  102d53:	0f b6 45 ec          	movzbl -0x14(%ebp),%eax
  102d57:	c1 e0 03             	shl    $0x3,%eax
  102d5a:	03 45 fc             	add    -0x4(%ebp),%eax
  102d5d:	0f b6 55 e4          	movzbl -0x1c(%ebp),%edx
  102d61:	88 50 05             	mov    %dl,0x5(%eax)
  102d64:	0f b6 45 ec          	movzbl -0x14(%ebp),%eax
  102d68:	c1 e0 03             	shl    $0x3,%eax
  102d6b:	03 45 fc             	add    -0x4(%ebp),%eax
  102d6e:	c6 40 04 00          	movb   $0x0,0x4(%eax)
  102d72:	c9                   	leave  
  102d73:	c3                   	ret    

00102d74 <sys_build_gdt>:
  102d74:	55                   	push   %ebp
  102d75:	89 e5                	mov    %esp,%ebp
  102d77:	83 ec 38             	sub    $0x38,%esp
  102d7a:	c7 45 f0 00 00 56 00 	movl   $0x560000,-0x10(%ebp)
  102d81:	c7 44 24 08 08 00 00 	movl   $0x8,0x8(%esp)
  102d88:	00 
  102d89:	c7 44 24 04 00 00 00 	movl   $0x0,0x4(%esp)
  102d90:	00 
  102d91:	8b 45 f0             	mov    -0x10(%ebp),%eax
  102d94:	89 04 24             	mov    %eax,(%esp)
  102d97:	e8 50 fb ff ff       	call   1028ec <memset>
  102d9c:	c7 44 24 10 cf 00 00 	movl   $0xcf,0x10(%esp)
  102da3:	00 
  102da4:	c7 44 24 0c 9a 00 00 	movl   $0x9a,0xc(%esp)
  102dab:	00 
  102dac:	c7 44 24 08 ff ff ff 	movl   $0xffffffff,0x8(%esp)
  102db3:	ff 
  102db4:	c7 44 24 04 00 00 00 	movl   $0x0,0x4(%esp)
  102dbb:	00 
  102dbc:	c7 04 24 01 00 00 00 	movl   $0x1,(%esp)
  102dc3:	e8 de 00 00 00       	call   102ea6 <sys_set_gdt_gate>
  102dc8:	c7 44 24 10 cf 00 00 	movl   $0xcf,0x10(%esp)
  102dcf:	00 
  102dd0:	c7 44 24 0c 92 00 00 	movl   $0x92,0xc(%esp)
  102dd7:	00 
  102dd8:	c7 44 24 08 ff ff ff 	movl   $0xffffffff,0x8(%esp)
  102ddf:	ff 
  102de0:	c7 44 24 04 00 00 00 	movl   $0x0,0x4(%esp)
  102de7:	00 
  102de8:	c7 04 24 02 00 00 00 	movl   $0x2,(%esp)
  102def:	e8 b2 00 00 00       	call   102ea6 <sys_set_gdt_gate>
  102df4:	c7 44 24 10 cf 00 00 	movl   $0xcf,0x10(%esp)
  102dfb:	00 
  102dfc:	c7 44 24 0c fa 00 00 	movl   $0xfa,0xc(%esp)
  102e03:	00 
  102e04:	c7 44 24 08 ff ff ff 	movl   $0xffffffff,0x8(%esp)
  102e0b:	ff 
  102e0c:	c7 44 24 04 00 00 00 	movl   $0x0,0x4(%esp)
  102e13:	00 
  102e14:	c7 04 24 03 00 00 00 	movl   $0x3,(%esp)
  102e1b:	e8 86 00 00 00       	call   102ea6 <sys_set_gdt_gate>
  102e20:	c7 44 24 10 cf 00 00 	movl   $0xcf,0x10(%esp)
  102e27:	00 
  102e28:	c7 44 24 0c f2 00 00 	movl   $0xf2,0xc(%esp)
  102e2f:	00 
  102e30:	c7 44 24 08 ff ff ff 	movl   $0xffffffff,0x8(%esp)
  102e37:	ff 
  102e38:	c7 44 24 04 00 00 00 	movl   $0x0,0x4(%esp)
  102e3f:	00 
  102e40:	c7 04 24 04 00 00 00 	movl   $0x4,(%esp)
  102e47:	e8 5a 00 00 00       	call   102ea6 <sys_set_gdt_gate>
  102e4c:	c7 45 f4 00 00 00 00 	movl   $0x0,-0xc(%ebp)
  102e53:	eb 3e                	jmp    102e93 <sys_build_gdt+0x11f>
  102e55:	8b 45 f4             	mov    -0xc(%ebp),%eax
  102e58:	05 00 ae 00 00       	add    $0xae00,%eax
  102e5d:	c1 e0 07             	shl    $0x7,%eax
  102e60:	89 c2                	mov    %eax,%edx
  102e62:	8b 45 f4             	mov    -0xc(%ebp),%eax
  102e65:	83 c0 05             	add    $0x5,%eax
  102e68:	0f b7 c0             	movzwl %ax,%eax
  102e6b:	c7 44 24 10 4f 00 00 	movl   $0x4f,0x10(%esp)
  102e72:	00 
  102e73:	c7 44 24 0c 89 00 00 	movl   $0x89,0xc(%esp)
  102e7a:	00 
  102e7b:	c7 44 24 08 80 00 00 	movl   $0x80,0x8(%esp)
  102e82:	00 
  102e83:	89 54 24 04          	mov    %edx,0x4(%esp)
  102e87:	89 04 24             	mov    %eax,(%esp)
  102e8a:	e8 17 00 00 00       	call   102ea6 <sys_set_gdt_gate>
  102e8f:	83 45 f4 01          	addl   $0x1,-0xc(%ebp)
  102e93:	83 7d f4 07          	cmpl   $0x7,-0xc(%ebp)
  102e97:	7e bc                	jle    102e55 <sys_build_gdt+0xe1>
  102e99:	8b 45 f0             	mov    -0x10(%ebp),%eax
  102e9c:	89 04 24             	mov    %eax,(%esp)
  102e9f:	e8 b6 00 00 00       	call   102f5a <sys_install_gdt>
  102ea4:	c9                   	leave  
  102ea5:	c3                   	ret    

00102ea6 <sys_set_gdt_gate>:
  102ea6:	55                   	push   %ebp
  102ea7:	89 e5                	mov    %esp,%ebp
  102ea9:	83 ec 1c             	sub    $0x1c,%esp
  102eac:	8b 4d 08             	mov    0x8(%ebp),%ecx
  102eaf:	8b 55 14             	mov    0x14(%ebp),%edx
  102eb2:	8b 45 18             	mov    0x18(%ebp),%eax
  102eb5:	66 89 4d ec          	mov    %cx,-0x14(%ebp)
  102eb9:	88 55 e8             	mov    %dl,-0x18(%ebp)
  102ebc:	88 45 e4             	mov    %al,-0x1c(%ebp)
  102ebf:	c7 45 fc 00 00 56 00 	movl   $0x560000,-0x4(%ebp)
  102ec6:	0f b7 45 ec          	movzwl -0x14(%ebp),%eax
  102eca:	c1 e0 03             	shl    $0x3,%eax
  102ecd:	03 45 fc             	add    -0x4(%ebp),%eax
  102ed0:	8b 55 0c             	mov    0xc(%ebp),%edx
  102ed3:	66 89 50 02          	mov    %dx,0x2(%eax)
  102ed7:	0f b7 45 ec          	movzwl -0x14(%ebp),%eax
  102edb:	c1 e0 03             	shl    $0x3,%eax
  102ede:	03 45 fc             	add    -0x4(%ebp),%eax
  102ee1:	8b 55 0c             	mov    0xc(%ebp),%edx
  102ee4:	c1 ea 10             	shr    $0x10,%edx
  102ee7:	88 50 04             	mov    %dl,0x4(%eax)
  102eea:	0f b7 45 ec          	movzwl -0x14(%ebp),%eax
  102eee:	c1 e0 03             	shl    $0x3,%eax
  102ef1:	03 45 fc             	add    -0x4(%ebp),%eax
  102ef4:	8b 55 0c             	mov    0xc(%ebp),%edx
  102ef7:	c1 ea 18             	shr    $0x18,%edx
  102efa:	88 50 07             	mov    %dl,0x7(%eax)
  102efd:	0f b7 45 ec          	movzwl -0x14(%ebp),%eax
  102f01:	c1 e0 03             	shl    $0x3,%eax
  102f04:	03 45 fc             	add    -0x4(%ebp),%eax
  102f07:	8b 55 10             	mov    0x10(%ebp),%edx
  102f0a:	66 89 10             	mov    %dx,(%eax)
  102f0d:	0f b7 45 ec          	movzwl -0x14(%ebp),%eax
  102f11:	c1 e0 03             	shl    $0x3,%eax
  102f14:	03 45 fc             	add    -0x4(%ebp),%eax
  102f17:	8b 55 10             	mov    0x10(%ebp),%edx
  102f1a:	c1 ea 10             	shr    $0x10,%edx
  102f1d:	83 e2 0f             	and    $0xf,%edx
  102f20:	88 50 06             	mov    %dl,0x6(%eax)
  102f23:	0f b7 45 ec          	movzwl -0x14(%ebp),%eax
  102f27:	c1 e0 03             	shl    $0x3,%eax
  102f2a:	03 45 fc             	add    -0x4(%ebp),%eax
  102f2d:	0f b7 55 ec          	movzwl -0x14(%ebp),%edx
  102f31:	c1 e2 03             	shl    $0x3,%edx
  102f34:	03 55 fc             	add    -0x4(%ebp),%edx
  102f37:	0f b6 52 06          	movzbl 0x6(%edx),%edx
  102f3b:	0f b6 4d e4          	movzbl -0x1c(%ebp),%ecx
  102f3f:	83 e1 f0             	and    $0xfffffff0,%ecx
  102f42:	09 ca                	or     %ecx,%edx
  102f44:	88 50 06             	mov    %dl,0x6(%eax)
  102f47:	0f b7 45 ec          	movzwl -0x14(%ebp),%eax
  102f4b:	c1 e0 03             	shl    $0x3,%eax
  102f4e:	03 45 fc             	add    -0x4(%ebp),%eax
  102f51:	0f b6 55 e8          	movzbl -0x18(%ebp),%edx
  102f55:	88 50 05             	mov    %dl,0x5(%eax)
  102f58:	c9                   	leave  
  102f59:	c3                   	ret    

00102f5a <sys_install_gdt>:
  102f5a:	55                   	push   %ebp
  102f5b:	89 e5                	mov    %esp,%ebp
  102f5d:	83 ec 10             	sub    $0x10,%esp
  102f60:	66 c7 45 fa 57 00    	movw   $0x57,-0x6(%ebp)
  102f66:	8b 45 08             	mov    0x8(%ebp),%eax
  102f69:	89 45 fc             	mov    %eax,-0x4(%ebp)
  102f6c:	8d 45 fa             	lea    -0x6(%ebp),%eax
  102f6f:	0f 01 10             	lgdtl  (%eax)
  102f72:	c9                   	leave  
  102f73:	c3                   	ret    

00102f74 <sys_set_lidt>:
  102f74:	55                   	push   %ebp
  102f75:	89 e5                	mov    %esp,%ebp
  102f77:	83 ec 14             	sub    $0x14,%esp
  102f7a:	8b 45 0c             	mov    0xc(%ebp),%eax
  102f7d:	66 89 45 ec          	mov    %ax,-0x14(%ebp)
  102f81:	0f b7 45 ec          	movzwl -0x14(%ebp),%eax
  102f85:	66 89 45 fa          	mov    %ax,-0x6(%ebp)
  102f89:	8b 45 08             	mov    0x8(%ebp),%eax
  102f8c:	89 45 fc             	mov    %eax,-0x4(%ebp)
  102f8f:	8d 45 fa             	lea    -0x6(%ebp),%eax
  102f92:	0f 01 18             	lidtl  (%eax)
  102f95:	c9                   	leave  
  102f96:	c3                   	ret    

00102f97 <sys_get_cpu_info>:
  102f97:	55                   	push   %ebp
  102f98:	89 e5                	mov    %esp,%ebp
  102f9a:	83 ec 18             	sub    $0x18,%esp
  102f9d:	a1 28 70 10 00       	mov    0x107028,%eax
  102fa2:	85 c0                	test   %eax,%eax
  102fa4:	75 0a                	jne    102fb0 <sys_get_cpu_info+0x19>
  102fa6:	e8 69 d0 ff ff       	call   100014 <cpuid_detect>
  102fab:	a3 28 70 10 00       	mov    %eax,0x107028
  102fb0:	a1 28 70 10 00       	mov    0x107028,%eax
  102fb5:	89 04 24             	mov    %eax,(%esp)
  102fb8:	e8 ae d0 ff ff       	call   10006b <cpuid_set_strings>
  102fbd:	a1 28 70 10 00       	mov    0x107028,%eax
  102fc2:	c9                   	leave  
  102fc3:	c3                   	ret    

00102fc4 <sys_get_ticks>:
  102fc4:	55                   	push   %ebp
  102fc5:	89 e5                	mov    %esp,%ebp
  102fc7:	a1 30 70 10 00       	mov    0x107030,%eax
  102fcc:	8b 15 34 70 10 00    	mov    0x107034,%edx
  102fd2:	5d                   	pop    %ebp
  102fd3:	c3                   	ret    

00102fd4 <sys_irq_enabled>:
  102fd4:	55                   	push   %ebp
  102fd5:	89 e5                	mov    %esp,%ebp
  102fd7:	53                   	push   %ebx
  102fd8:	83 ec 10             	sub    $0x10,%esp
  102fdb:	9c                   	pushf  
  102fdc:	5b                   	pop    %ebx
  102fdd:	89 5d f8             	mov    %ebx,-0x8(%ebp)
  102fe0:	8b 45 f8             	mov    -0x8(%ebp),%eax
  102fe3:	25 00 02 00 00       	and    $0x200,%eax
  102fe8:	85 c0                	test   %eax,%eax
  102fea:	0f 95 c0             	setne  %al
  102fed:	83 c4 10             	add    $0x10,%esp
  102ff0:	5b                   	pop    %ebx
  102ff1:	5d                   	pop    %ebp
  102ff2:	c3                   	ret    

00102ff3 <sys_rdtsc>:
  102ff3:	55                   	push   %ebp
  102ff4:	89 e5                	mov    %esp,%ebp
  102ff6:	0f 31                	rdtsc  
  102ff8:	89 c1                	mov    %eax,%ecx
  102ffa:	8b 45 0c             	mov    0xc(%ebp),%eax
  102ffd:	89 08                	mov    %ecx,(%eax)
  102fff:	8b 45 08             	mov    0x8(%ebp),%eax
  103002:	89 10                	mov    %edx,(%eax)
  103004:	5d                   	pop    %ebp
  103005:	c3                   	ret    

00103006 <sys_flush_tlb>:
  103006:	55                   	push   %ebp
  103007:	89 e5                	mov    %esp,%ebp
  103009:	0f 01 7d 08          	invlpg 0x8(%ebp)
  10300d:	5d                   	pop    %ebp
  10300e:	c3                   	ret    

0010300f <sys_read_MSR>:
  10300f:	55                   	push   %ebp
  103010:	89 e5                	mov    %esp,%ebp
  103012:	83 ec 08             	sub    $0x8,%esp
  103015:	8b 4d 08             	mov    0x8(%ebp),%ecx
  103018:	89 4d f8             	mov    %ecx,-0x8(%ebp)
  10301b:	8b 4d f8             	mov    -0x8(%ebp),%ecx
  10301e:	0f 32                	rdmsr  
  103020:	89 45 fc             	mov    %eax,-0x4(%ebp)
  103023:	8b 45 0c             	mov    0xc(%ebp),%eax
  103026:	8b 4d fc             	mov    -0x4(%ebp),%ecx
  103029:	89 08                	mov    %ecx,(%eax)
  10302b:	8b 45 10             	mov    0x10(%ebp),%eax
  10302e:	89 10                	mov    %edx,(%eax)
  103030:	c9                   	leave  
  103031:	c3                   	ret    

00103032 <sys_write_MSR>:
  103032:	55                   	push   %ebp
  103033:	89 e5                	mov    %esp,%ebp
  103035:	8b 45 0c             	mov    0xc(%ebp),%eax
  103038:	8b 55 10             	mov    0x10(%ebp),%edx
  10303b:	8b 4d 08             	mov    0x8(%ebp),%ecx
  10303e:	0f 30                	wrmsr  
  103040:	5d                   	pop    %ebp
  103041:	c3                   	ret    

00103042 <sys_timer_tick_handler>:
  103042:	55                   	push   %ebp
  103043:	89 e5                	mov    %esp,%ebp
  103045:	83 ec 18             	sub    $0x18,%esp
  103048:	c7 04 24 00 00 00 00 	movl   $0x0,(%esp)
  10304f:	e8 7b f6 ff ff       	call   1026cf <sys_pic_irq_eoi>
  103054:	a1 30 70 10 00       	mov    0x107030,%eax
  103059:	8b 15 34 70 10 00    	mov    0x107034,%edx
  10305f:	83 c0 01             	add    $0x1,%eax
  103062:	83 d2 00             	adc    $0x0,%edx
  103065:	a3 30 70 10 00       	mov    %eax,0x107030
  10306a:	89 15 34 70 10 00    	mov    %edx,0x107034
  103070:	c9                   	leave  
  103071:	c3                   	ret    

00103072 <sys_page_fault_handler>:
  103072:	55                   	push   %ebp
  103073:	89 e5                	mov    %esp,%ebp
  103075:	5d                   	pop    %ebp
  103076:	c3                   	ret    
	...

00103078 <terminal_initialize>:
  103078:	55                   	push   %ebp
  103079:	89 e5                	mov    %esp,%ebp
  10307b:	53                   	push   %ebx
  10307c:	83 ec 34             	sub    $0x34,%esp
  10307f:	8b 45 08             	mov    0x8(%ebp),%eax
  103082:	88 45 e4             	mov    %al,-0x1c(%ebp)
  103085:	c6 05 40 70 10 00 00 	movb   $0x0,0x107040
  10308c:	c6 05 3a 70 10 00 00 	movb   $0x0,0x10703a
  103093:	c6 05 38 70 10 00 07 	movb   $0x7,0x107038
  10309a:	c7 05 3c 70 10 00 00 	movl   $0xb8000,0x10703c
  1030a1:	80 0b 00 
  1030a4:	80 7d e4 00          	cmpb   $0x0,-0x1c(%ebp)
  1030a8:	74 6b                	je     103115 <terminal_initialize+0x9d>
  1030aa:	c7 45 f4 00 00 00 00 	movl   $0x0,-0xc(%ebp)
  1030b1:	eb 5c                	jmp    10310f <terminal_initialize+0x97>
  1030b3:	c7 45 f0 00 00 00 00 	movl   $0x0,-0x10(%ebp)
  1030ba:	eb 49                	jmp    103105 <terminal_initialize+0x8d>
  1030bc:	8b 45 f4             	mov    -0xc(%ebp),%eax
  1030bf:	89 c2                	mov    %eax,%edx
  1030c1:	89 d0                	mov    %edx,%eax
  1030c3:	c1 e0 02             	shl    $0x2,%eax
  1030c6:	01 d0                	add    %edx,%eax
  1030c8:	c1 e0 04             	shl    $0x4,%eax
  1030cb:	89 c2                	mov    %eax,%edx
  1030cd:	8b 45 f0             	mov    -0x10(%ebp),%eax
  1030d0:	01 d0                	add    %edx,%eax
  1030d2:	66 89 45 ee          	mov    %ax,-0x12(%ebp)
  1030d6:	a1 3c 70 10 00       	mov    0x10703c,%eax
  1030db:	0f b7 55 ee          	movzwl -0x12(%ebp),%edx
  1030df:	01 d2                	add    %edx,%edx
  1030e1:	8d 1c 10             	lea    (%eax,%edx,1),%ebx
  1030e4:	0f b6 05 38 70 10 00 	movzbl 0x107038,%eax
  1030eb:	0f b6 c0             	movzbl %al,%eax
  1030ee:	89 44 24 04          	mov    %eax,0x4(%esp)
  1030f2:	c7 04 24 20 00 00 00 	movl   $0x20,(%esp)
  1030f9:	e8 d2 03 00 00       	call   1034d0 <vga_txt_makentry>
  1030fe:	66 89 03             	mov    %ax,(%ebx)
  103101:	83 45 f0 01          	addl   $0x1,-0x10(%ebp)
  103105:	83 7d f0 4f          	cmpl   $0x4f,-0x10(%ebp)
  103109:	7e b1                	jle    1030bc <terminal_initialize+0x44>
  10310b:	83 45 f4 01          	addl   $0x1,-0xc(%ebp)
  10310f:	83 7d f4 18          	cmpl   $0x18,-0xc(%ebp)
  103113:	7e 9e                	jle    1030b3 <terminal_initialize+0x3b>
  103115:	c6 05 38 70 10 00 0f 	movb   $0xf,0x107038
  10311c:	83 c4 34             	add    $0x34,%esp
  10311f:	5b                   	pop    %ebx
  103120:	5d                   	pop    %ebp
  103121:	c3                   	ret    

00103122 <terminal_setColour>:
  103122:	55                   	push   %ebp
  103123:	89 e5                	mov    %esp,%ebp
  103125:	83 ec 04             	sub    $0x4,%esp
  103128:	8b 45 08             	mov    0x8(%ebp),%eax
  10312b:	88 45 fc             	mov    %al,-0x4(%ebp)
  10312e:	0f b6 45 fc          	movzbl -0x4(%ebp),%eax
  103132:	a2 38 70 10 00       	mov    %al,0x107038
  103137:	c9                   	leave  
  103138:	c3                   	ret    

00103139 <terminal_putentryat>:
  103139:	55                   	push   %ebp
  10313a:	89 e5                	mov    %esp,%ebp
  10313c:	53                   	push   %ebx
  10313d:	83 ec 34             	sub    $0x34,%esp
  103140:	8b 5d 08             	mov    0x8(%ebp),%ebx
  103143:	8b 4d 0c             	mov    0xc(%ebp),%ecx
  103146:	8b 55 10             	mov    0x10(%ebp),%edx
  103149:	8b 45 14             	mov    0x14(%ebp),%eax
  10314c:	88 5d e4             	mov    %bl,-0x1c(%ebp)
  10314f:	88 4d e0             	mov    %cl,-0x20(%ebp)
  103152:	88 55 dc             	mov    %dl,-0x24(%ebp)
  103155:	88 45 d8             	mov    %al,-0x28(%ebp)
  103158:	0f b6 55 d8          	movzbl -0x28(%ebp),%edx
  10315c:	89 d0                	mov    %edx,%eax
  10315e:	c1 e0 02             	shl    $0x2,%eax
  103161:	01 d0                	add    %edx,%eax
  103163:	c1 e0 04             	shl    $0x4,%eax
  103166:	89 c2                	mov    %eax,%edx
  103168:	0f b6 45 dc          	movzbl -0x24(%ebp),%eax
  10316c:	01 d0                	add    %edx,%eax
  10316e:	66 89 45 f6          	mov    %ax,-0xa(%ebp)
  103172:	a1 3c 70 10 00       	mov    0x10703c,%eax
  103177:	0f b7 55 f6          	movzwl -0xa(%ebp),%edx
  10317b:	01 d2                	add    %edx,%edx
  10317d:	8d 1c 10             	lea    (%eax,%edx,1),%ebx
  103180:	0f b6 55 e0          	movzbl -0x20(%ebp),%edx
  103184:	0f b6 45 e4          	movzbl -0x1c(%ebp),%eax
  103188:	0f b6 c0             	movzbl %al,%eax
  10318b:	89 54 24 04          	mov    %edx,0x4(%esp)
  10318f:	89 04 24             	mov    %eax,(%esp)
  103192:	e8 39 03 00 00       	call   1034d0 <vga_txt_makentry>
  103197:	66 89 03             	mov    %ax,(%ebx)
  10319a:	83 c4 34             	add    $0x34,%esp
  10319d:	5b                   	pop    %ebx
  10319e:	5d                   	pop    %ebp
  10319f:	c3                   	ret    

001031a0 <terminal_putchar>:
  1031a0:	55                   	push   %ebp
  1031a1:	89 e5                	mov    %esp,%ebp
  1031a3:	53                   	push   %ebx
  1031a4:	83 ec 24             	sub    $0x24,%esp
  1031a7:	8b 45 08             	mov    0x8(%ebp),%eax
  1031aa:	88 45 f4             	mov    %al,-0xc(%ebp)
  1031ad:	80 7d f4 0a          	cmpb   $0xa,-0xc(%ebp)
  1031b1:	75 18                	jne    1031cb <terminal_putchar+0x2b>
  1031b3:	0f b6 05 40 70 10 00 	movzbl 0x107040,%eax
  1031ba:	83 c0 01             	add    $0x1,%eax
  1031bd:	a2 40 70 10 00       	mov    %al,0x107040
  1031c2:	c6 05 3a 70 10 00 00 	movb   $0x0,0x10703a
  1031c9:	eb 78                	jmp    103243 <terminal_putchar+0xa3>
  1031cb:	0f b6 05 40 70 10 00 	movzbl 0x107040,%eax
  1031d2:	0f b6 d8             	movzbl %al,%ebx
  1031d5:	0f b6 05 3a 70 10 00 	movzbl 0x10703a,%eax
  1031dc:	0f b6 c8             	movzbl %al,%ecx
  1031df:	0f b6 05 38 70 10 00 	movzbl 0x107038,%eax
  1031e6:	0f b6 d0             	movzbl %al,%edx
  1031e9:	0f be 45 f4          	movsbl -0xc(%ebp),%eax
  1031ed:	89 5c 24 0c          	mov    %ebx,0xc(%esp)
  1031f1:	89 4c 24 08          	mov    %ecx,0x8(%esp)
  1031f5:	89 54 24 04          	mov    %edx,0x4(%esp)
  1031f9:	89 04 24             	mov    %eax,(%esp)
  1031fc:	e8 38 ff ff ff       	call   103139 <terminal_putentryat>
  103201:	0f b6 05 3a 70 10 00 	movzbl 0x10703a,%eax
  103208:	83 c0 01             	add    $0x1,%eax
  10320b:	a2 3a 70 10 00       	mov    %al,0x10703a
  103210:	0f b6 05 3a 70 10 00 	movzbl 0x10703a,%eax
  103217:	3c 50                	cmp    $0x50,%al
  103219:	75 28                	jne    103243 <terminal_putchar+0xa3>
  10321b:	c6 05 3a 70 10 00 00 	movb   $0x0,0x10703a
  103222:	0f b6 05 40 70 10 00 	movzbl 0x107040,%eax
  103229:	83 c0 01             	add    $0x1,%eax
  10322c:	a2 40 70 10 00       	mov    %al,0x107040
  103231:	0f b6 05 40 70 10 00 	movzbl 0x107040,%eax
  103238:	3c 19                	cmp    $0x19,%al
  10323a:	75 07                	jne    103243 <terminal_putchar+0xa3>
  10323c:	c6 05 40 70 10 00 00 	movb   $0x0,0x107040
  103243:	83 c4 24             	add    $0x24,%esp
  103246:	5b                   	pop    %ebx
  103247:	5d                   	pop    %ebp
  103248:	c3                   	ret    

00103249 <terminal_write_string>:
  103249:	55                   	push   %ebp
  10324a:	89 e5                	mov    %esp,%ebp
  10324c:	83 ec 28             	sub    $0x28,%esp
  10324f:	8b 45 08             	mov    0x8(%ebp),%eax
  103252:	89 04 24             	mov    %eax,(%esp)
  103255:	e8 82 f5 ff ff       	call   1027dc <strlen>
  10325a:	89 45 f0             	mov    %eax,-0x10(%ebp)
  10325d:	c7 45 f4 00 00 00 00 	movl   $0x0,-0xc(%ebp)
  103264:	eb 18                	jmp    10327e <terminal_write_string+0x35>
  103266:	8b 45 f4             	mov    -0xc(%ebp),%eax
  103269:	03 45 08             	add    0x8(%ebp),%eax
  10326c:	0f b6 00             	movzbl (%eax),%eax
  10326f:	0f be c0             	movsbl %al,%eax
  103272:	89 04 24             	mov    %eax,(%esp)
  103275:	e8 26 ff ff ff       	call   1031a0 <terminal_putchar>
  10327a:	83 45 f4 01          	addl   $0x1,-0xc(%ebp)
  10327e:	8b 45 f4             	mov    -0xc(%ebp),%eax
  103281:	3b 45 f0             	cmp    -0x10(%ebp),%eax
  103284:	72 e0                	jb     103266 <terminal_write_string+0x1d>
  103286:	0f b6 05 3a 70 10 00 	movzbl 0x10703a,%eax
  10328d:	a2 39 70 10 00       	mov    %al,0x107039
  103292:	c9                   	leave  
  103293:	c3                   	ret    

00103294 <terminal_write_byte>:
  103294:	55                   	push   %ebp
  103295:	89 e5                	mov    %esp,%ebp
  103297:	83 ec 38             	sub    $0x38,%esp
  10329a:	8b 45 08             	mov    0x8(%ebp),%eax
  10329d:	88 45 e4             	mov    %al,-0x1c(%ebp)
  1032a0:	0f b6 45 e4          	movzbl -0x1c(%ebp),%eax
  1032a4:	c0 e8 04             	shr    $0x4,%al
  1032a7:	88 45 f7             	mov    %al,-0x9(%ebp)
  1032aa:	80 7d f7 09          	cmpb   $0x9,-0x9(%ebp)
  1032ae:	76 06                	jbe    1032b6 <terminal_write_byte+0x22>
  1032b0:	80 45 f7 37          	addb   $0x37,-0x9(%ebp)
  1032b4:	eb 04                	jmp    1032ba <terminal_write_byte+0x26>
  1032b6:	80 45 f7 30          	addb   $0x30,-0x9(%ebp)
  1032ba:	0f b6 45 f7          	movzbl -0x9(%ebp),%eax
  1032be:	0f be c0             	movsbl %al,%eax
  1032c1:	89 04 24             	mov    %eax,(%esp)
  1032c4:	e8 d7 fe ff ff       	call   1031a0 <terminal_putchar>
  1032c9:	0f b6 45 e4          	movzbl -0x1c(%ebp),%eax
  1032cd:	83 e0 0f             	and    $0xf,%eax
  1032d0:	88 45 f7             	mov    %al,-0x9(%ebp)
  1032d3:	80 7d f7 09          	cmpb   $0x9,-0x9(%ebp)
  1032d7:	76 06                	jbe    1032df <terminal_write_byte+0x4b>
  1032d9:	80 45 f7 37          	addb   $0x37,-0x9(%ebp)
  1032dd:	eb 04                	jmp    1032e3 <terminal_write_byte+0x4f>
  1032df:	80 45 f7 30          	addb   $0x30,-0x9(%ebp)
  1032e3:	0f b6 45 f7          	movzbl -0x9(%ebp),%eax
  1032e7:	0f be c0             	movsbl %al,%eax
  1032ea:	89 04 24             	mov    %eax,(%esp)
  1032ed:	e8 ae fe ff ff       	call   1031a0 <terminal_putchar>
  1032f2:	c9                   	leave  
  1032f3:	c3                   	ret    

001032f4 <terminal_write_word>:
  1032f4:	55                   	push   %ebp
  1032f5:	89 e5                	mov    %esp,%ebp
  1032f7:	83 ec 28             	sub    $0x28,%esp
  1032fa:	8b 45 08             	mov    0x8(%ebp),%eax
  1032fd:	66 89 45 f4          	mov    %ax,-0xc(%ebp)
  103301:	0f b7 45 f4          	movzwl -0xc(%ebp),%eax
  103305:	66 c1 e8 08          	shr    $0x8,%ax
  103309:	0f b6 c0             	movzbl %al,%eax
  10330c:	89 04 24             	mov    %eax,(%esp)
  10330f:	e8 80 ff ff ff       	call   103294 <terminal_write_byte>
  103314:	0f b7 45 f4          	movzwl -0xc(%ebp),%eax
  103318:	0f b6 c0             	movzbl %al,%eax
  10331b:	89 04 24             	mov    %eax,(%esp)
  10331e:	e8 71 ff ff ff       	call   103294 <terminal_write_byte>
  103323:	c9                   	leave  
  103324:	c3                   	ret    

00103325 <terminal_write_dword>:
  103325:	55                   	push   %ebp
  103326:	89 e5                	mov    %esp,%ebp
  103328:	83 ec 18             	sub    $0x18,%esp
  10332b:	8b 45 08             	mov    0x8(%ebp),%eax
  10332e:	c1 e8 10             	shr    $0x10,%eax
  103331:	0f b7 c0             	movzwl %ax,%eax
  103334:	89 04 24             	mov    %eax,(%esp)
  103337:	e8 b8 ff ff ff       	call   1032f4 <terminal_write_word>
  10333c:	8b 45 08             	mov    0x8(%ebp),%eax
  10333f:	0f b7 c0             	movzwl %ax,%eax
  103342:	89 04 24             	mov    %eax,(%esp)
  103345:	e8 aa ff ff ff       	call   1032f4 <terminal_write_word>
  10334a:	c9                   	leave  
  10334b:	c3                   	ret    

0010334c <terminal_write_int>:
  10334c:	55                   	push   %ebp
  10334d:	89 e5                	mov    %esp,%ebp
  10334f:	83 ec 68             	sub    $0x68,%esp
  103352:	83 7d 08 00          	cmpl   $0x0,0x8(%ebp)
  103356:	75 11                	jne    103369 <terminal_write_int+0x1d>
  103358:	c7 04 24 30 00 00 00 	movl   $0x30,(%esp)
  10335f:	e8 3c fe ff ff       	call   1031a0 <terminal_putchar>
  103364:	e9 b1 00 00 00       	jmp    10341a <terminal_write_int+0xce>
  103369:	8b 45 08             	mov    0x8(%ebp),%eax
  10336c:	89 45 f4             	mov    %eax,-0xc(%ebp)
  10336f:	c7 45 f0 00 00 00 00 	movl   $0x0,-0x10(%ebp)
  103376:	eb 53                	jmp    1033cb <terminal_write_int+0x7f>
  103378:	8b 4d f4             	mov    -0xc(%ebp),%ecx
  10337b:	ba 67 66 66 66       	mov    $0x66666667,%edx
  103380:	89 c8                	mov    %ecx,%eax
  103382:	f7 ea                	imul   %edx
  103384:	c1 fa 02             	sar    $0x2,%edx
  103387:	89 c8                	mov    %ecx,%eax
  103389:	c1 f8 1f             	sar    $0x1f,%eax
  10338c:	29 c2                	sub    %eax,%edx
  10338e:	89 d0                	mov    %edx,%eax
  103390:	c1 e0 02             	shl    $0x2,%eax
  103393:	01 d0                	add    %edx,%eax
  103395:	01 c0                	add    %eax,%eax
  103397:	89 ca                	mov    %ecx,%edx
  103399:	29 c2                	sub    %eax,%edx
  10339b:	89 d0                	mov    %edx,%eax
  10339d:	83 c0 30             	add    $0x30,%eax
  1033a0:	89 c2                	mov    %eax,%edx
  1033a2:	8d 45 cc             	lea    -0x34(%ebp),%eax
  1033a5:	03 45 f0             	add    -0x10(%ebp),%eax
  1033a8:	88 10                	mov    %dl,(%eax)
  1033aa:	8b 4d f4             	mov    -0xc(%ebp),%ecx
  1033ad:	ba 67 66 66 66       	mov    $0x66666667,%edx
  1033b2:	89 c8                	mov    %ecx,%eax
  1033b4:	f7 ea                	imul   %edx
  1033b6:	c1 fa 02             	sar    $0x2,%edx
  1033b9:	89 c8                	mov    %ecx,%eax
  1033bb:	c1 f8 1f             	sar    $0x1f,%eax
  1033be:	89 d1                	mov    %edx,%ecx
  1033c0:	29 c1                	sub    %eax,%ecx
  1033c2:	89 c8                	mov    %ecx,%eax
  1033c4:	89 45 f4             	mov    %eax,-0xc(%ebp)
  1033c7:	83 45 f0 01          	addl   $0x1,-0x10(%ebp)
  1033cb:	83 7d f4 00          	cmpl   $0x0,-0xc(%ebp)
  1033cf:	7f a7                	jg     103378 <terminal_write_int+0x2c>
  1033d1:	8d 45 cc             	lea    -0x34(%ebp),%eax
  1033d4:	03 45 f0             	add    -0x10(%ebp),%eax
  1033d7:	c6 00 00             	movb   $0x0,(%eax)
  1033da:	8d 45 ac             	lea    -0x54(%ebp),%eax
  1033dd:	03 45 f0             	add    -0x10(%ebp),%eax
  1033e0:	c6 00 00             	movb   $0x0,(%eax)
  1033e3:	83 6d f0 01          	subl   $0x1,-0x10(%ebp)
  1033e7:	c7 45 ec 00 00 00 00 	movl   $0x0,-0x14(%ebp)
  1033ee:	eb 19                	jmp    103409 <terminal_write_int+0xbd>
  1033f0:	8d 45 cc             	lea    -0x34(%ebp),%eax
  1033f3:	03 45 ec             	add    -0x14(%ebp),%eax
  1033f6:	0f b6 10             	movzbl (%eax),%edx
  1033f9:	8d 45 ac             	lea    -0x54(%ebp),%eax
  1033fc:	03 45 f0             	add    -0x10(%ebp),%eax
  1033ff:	88 10                	mov    %dl,(%eax)
  103401:	83 6d f0 01          	subl   $0x1,-0x10(%ebp)
  103405:	83 45 ec 01          	addl   $0x1,-0x14(%ebp)
  103409:	83 7d f0 00          	cmpl   $0x0,-0x10(%ebp)
  10340d:	79 e1                	jns    1033f0 <terminal_write_int+0xa4>
  10340f:	8d 45 ac             	lea    -0x54(%ebp),%eax
  103412:	89 04 24             	mov    %eax,(%esp)
  103415:	e8 2f fe ff ff       	call   103249 <terminal_write_string>
  10341a:	c9                   	leave  
  10341b:	c3                   	ret    

0010341c <terminal_clear>:
  10341c:	55                   	push   %ebp
  10341d:	89 e5                	mov    %esp,%ebp
  10341f:	53                   	push   %ebx
  103420:	83 ec 24             	sub    $0x24,%esp
  103423:	c7 45 f4 00 00 00 00 	movl   $0x0,-0xc(%ebp)
  10342a:	eb 5c                	jmp    103488 <terminal_clear+0x6c>
  10342c:	c7 45 f0 00 00 00 00 	movl   $0x0,-0x10(%ebp)
  103433:	eb 49                	jmp    10347e <terminal_clear+0x62>
  103435:	8b 45 f4             	mov    -0xc(%ebp),%eax
  103438:	89 c2                	mov    %eax,%edx
  10343a:	89 d0                	mov    %edx,%eax
  10343c:	c1 e0 02             	shl    $0x2,%eax
  10343f:	01 d0                	add    %edx,%eax
  103441:	c1 e0 04             	shl    $0x4,%eax
  103444:	89 c2                	mov    %eax,%edx
  103446:	8b 45 f0             	mov    -0x10(%ebp),%eax
  103449:	01 d0                	add    %edx,%eax
  10344b:	66 89 45 ee          	mov    %ax,-0x12(%ebp)
  10344f:	a1 3c 70 10 00       	mov    0x10703c,%eax
  103454:	0f b7 55 ee          	movzwl -0x12(%ebp),%edx
  103458:	01 d2                	add    %edx,%edx
  10345a:	8d 1c 10             	lea    (%eax,%edx,1),%ebx
  10345d:	0f b6 05 38 70 10 00 	movzbl 0x107038,%eax
  103464:	0f b6 c0             	movzbl %al,%eax
  103467:	89 44 24 04          	mov    %eax,0x4(%esp)
  10346b:	c7 04 24 20 00 00 00 	movl   $0x20,(%esp)
  103472:	e8 59 00 00 00       	call   1034d0 <vga_txt_makentry>
  103477:	66 89 03             	mov    %ax,(%ebx)
  10347a:	83 45 f0 01          	addl   $0x1,-0x10(%ebp)
  10347e:	83 7d f0 4f          	cmpl   $0x4f,-0x10(%ebp)
  103482:	7e b1                	jle    103435 <terminal_clear+0x19>
  103484:	83 45 f4 01          	addl   $0x1,-0xc(%ebp)
  103488:	83 7d f4 18          	cmpl   $0x18,-0xc(%ebp)
  10348c:	7e 9e                	jle    10342c <terminal_clear+0x10>
  10348e:	c6 05 3a 70 10 00 00 	movb   $0x0,0x10703a
  103495:	0f b6 05 3a 70 10 00 	movzbl 0x10703a,%eax
  10349c:	a2 40 70 10 00       	mov    %al,0x107040
  1034a1:	83 c4 24             	add    $0x24,%esp
  1034a4:	5b                   	pop    %ebx
  1034a5:	5d                   	pop    %ebp
  1034a6:	c3                   	ret    

001034a7 <terminal_setPos>:
  1034a7:	55                   	push   %ebp
  1034a8:	89 e5                	mov    %esp,%ebp
  1034aa:	83 ec 08             	sub    $0x8,%esp
  1034ad:	8b 55 08             	mov    0x8(%ebp),%edx
  1034b0:	8b 45 0c             	mov    0xc(%ebp),%eax
  1034b3:	88 55 fc             	mov    %dl,-0x4(%ebp)
  1034b6:	88 45 f8             	mov    %al,-0x8(%ebp)
  1034b9:	0f b6 45 fc          	movzbl -0x4(%ebp),%eax
  1034bd:	a2 3a 70 10 00       	mov    %al,0x10703a
  1034c2:	0f b6 45 f8          	movzbl -0x8(%ebp),%eax
  1034c6:	a2 40 70 10 00       	mov    %al,0x107040
  1034cb:	c9                   	leave  
  1034cc:	c3                   	ret    
  1034cd:	00 00                	add    %al,(%eax)
	...

001034d0 <vga_txt_makentry>:
  1034d0:	55                   	push   %ebp
  1034d1:	89 e5                	mov    %esp,%ebp
  1034d3:	83 ec 08             	sub    $0x8,%esp
  1034d6:	8b 55 08             	mov    0x8(%ebp),%edx
  1034d9:	8b 45 0c             	mov    0xc(%ebp),%eax
  1034dc:	88 55 fc             	mov    %dl,-0x4(%ebp)
  1034df:	88 45 f8             	mov    %al,-0x8(%ebp)
  1034e2:	0f b6 55 fc          	movzbl -0x4(%ebp),%edx
  1034e6:	0f b6 45 f8          	movzbl -0x8(%ebp),%eax
  1034ea:	c1 e0 08             	shl    $0x8,%eax
  1034ed:	09 d0                	or     %edx,%eax
  1034ef:	c9                   	leave  
  1034f0:	c3                   	ret    
